(lp0
(dp1
S'price'
p2
cnumpy.core.multiarray
scalar
p3
(cnumpy
dtype
p4
(S'f8'
p5
I0
I1
tp6
Rp7
(I3
S'<'
p8
NNNI-1
I-1
I0
tp9
bS'\r\xd5l\x85\xfa\xdc(@'
p10
tp11
Rp12
sS'day'
p13
I0
sS'hour'
p14
I0
sS'month'
p15
I1
sa(dp16
g2
g3
(g7
S'im\x91\xbf\xda\x1b)@'
p17
tp18
Rp19
sg13
I0
sg14
I1
sg15
I1
sa(dp20
g2
g3
(g7
S'{\xa8\x0b\xa3\xd16)@'
p21
tp22
Rp23
sg13
I0
sg14
I2
sg15
I1
sa(dp24
g2
g3
(g7
S'\xe1\\\x11kL\xa0*@'
p25
tp26
Rp27
sg13
I0
sg14
I3
sg15
I1
sa(dp28
g2
g3
(g7
S'\xe0c\x8f\xd4\xf8\x0e-@'
p29
tp30
Rp31
sg13
I0
sg14
I4
sg15
I1
sa(dp32
g2
g3
(g7
S'\xe3\x14\xba\x82\xd1N1@'
p33
tp34
Rp35
sg13
I0
sg14
I5
sg15
I1
sa(dp36
g2
g3
(g7
S'\x83\x1dA\xfb\xdb\x060@'
p37
tp38
Rp39
sg13
I0
sg14
I6
sg15
I1
sa(dp40
g2
g3
(g7
S'sP9,:v,@'
p41
tp42
Rp43
sg13
I0
sg14
I7
sg15
I1
sa(dp44
g2
g3
(g7
S'\x18k\xf1x \xef+@'
p45
tp46
Rp47
sg13
I0
sg14
I8
sg15
I1
sa(dp48
g2
g3
(g7
S'\xb1\xe9\xf2\'>"+@'
p49
tp50
Rp51
sg13
I0
sg14
I9
sg15
I1
sa(dp52
g2
g3
(g7
S'\n\x98\xb1Uf\xed)@'
p53
tp54
Rp55
sg13
I0
sg14
I10
sg15
I1
sa(dp56
g2
g3
(g7
S'$l\xb7\xd2\xba\xef)@'
p57
tp58
Rp59
sg13
I0
sg14
I11
sg15
I1
sa(dp60
g2
g3
(g7
S')\xe4(\xb2{\x18*@'
p61
tp62
Rp63
sg13
I0
sg14
I12
sg15
I1
sa(dp64
g2
g3
(g7
S'X)\xd5\x93n\x05+@'
p65
tp66
Rp67
sg13
I0
sg14
I13
sg15
I1
sa(dp68
g2
g3
(g7
S'\xd5\xf06\xec\xd8\xd8*@'
p69
tp70
Rp71
sg13
I0
sg14
I14
sg15
I1
sa(dp72
g2
g3
(g7
S'\xb6\xa3\x89k0\xb8*@'
p73
tp74
Rp75
sg13
I0
sg14
I15
sg15
I1
sa(dp76
g2
g3
(g7
S'\xe8\xc8\xb7Z-\x17+@'
p77
tp78
Rp79
sg13
I0
sg14
I16
sg15
I1
sa(dp80
g2
g3
(g7
S"[\x98'3Y\xcf*@"
p81
tp82
Rp83
sg13
I0
sg14
I17
sg15
I1
sa(dp84
g2
g3
(g7
S'\x94\xff\xa7;\xf4\xad(@'
p85
tp86
Rp87
sg13
I0
sg14
I18
sg15
I1
sa(dp88
g2
g3
(g7
S'\xeb\xe2\xbfHOh(@'
p89
tp90
Rp91
sg13
I0
sg14
I19
sg15
I1
sa(dp92
g2
g3
(g7
S"i\xe2\x84*\xfc/'@"
p93
tp94
Rp95
sg13
I0
sg14
I20
sg15
I1
sa(dp96
g2
g3
(g7
S'/\xaa\x9cY\x8a\xa2(@'
p97
tp98
Rp99
sg13
I0
sg14
I21
sg15
I1
sa(dp100
g2
g3
(g7
S',\x82;\x8ff\x19)@'
p101
tp102
Rp103
sg13
I0
sg14
I22
sg15
I1
sa(dp104
g2
g3
(g7
S'b\xb3\xc0\x06\xe1\x12(@'
p105
tp106
Rp107
sg13
I0
sg14
I23
sg15
I1
sa(dp108
g2
g3
(g7
S"nrr\x95A\xec'@"
p109
tp110
Rp111
sg13
I1
sg14
I0
sg15
I1
sa(dp112
g2
g3
(g7
S'\xad\x1d\xdf\xdc&\x10(@'
p113
tp114
Rp115
sg13
I1
sg14
I1
sg15
I1
sa(dp116
g2
g3
(g7
S"B\x9a\x8c\x91\xbb\xe0'@"
p117
tp118
Rp119
sg13
I1
sg14
I2
sg15
I1
sa(dp120
g2
g3
(g7
S'la\xe4\xea\xa5\x8b)@'
p121
tp122
Rp123
sg13
I1
sg14
I3
sg15
I1
sa(dp124
g2
g3
(g7
S'\xa4\x9e\x11\xc7p\xf4.@'
p125
tp126
Rp127
sg13
I1
sg14
I4
sg15
I1
sa(dp128
g2
g3
(g7
S'\x89\x1f\xca\xf7N\x181@'
p129
tp130
Rp131
sg13
I1
sg14
I5
sg15
I1
sa(dp132
g2
g3
(g7
S'\x9d\x00\xb3\xb1i\xb6/@'
p133
tp134
Rp135
sg13
I1
sg14
I6
sg15
I1
sa(dp136
g2
g3
(g7
S'\x9c\xba$\t\xbe\xf1+@'
p137
tp138
Rp139
sg13
I1
sg14
I7
sg15
I1
sa(dp140
g2
g3
(g7
S'\xb1\x9a\xbf\x92^H+@'
p141
tp142
Rp143
sg13
I1
sg14
I8
sg15
I1
sa(dp144
g2
g3
(g7
S'I\xd1\x91h\x1fy+@'
p145
tp146
Rp147
sg13
I1
sg14
I9
sg15
I1
sa(dp148
g2
g3
(g7
S',\x06\xdc\x05\x89K+@'
p149
tp150
Rp151
sg13
I1
sg14
I10
sg15
I1
sa(dp152
g2
g3
(g7
S'\nk\x8f\xa2\x97\xec*@'
p153
tp154
Rp155
sg13
I1
sg14
I11
sg15
I1
sa(dp156
g2
g3
(g7
S'\x17\x92>POj+@'
p157
tp158
Rp159
sg13
I1
sg14
I12
sg15
I1
sa(dp160
g2
g3
(g7
S'\xa2P\x84\x94\x17\x92*@'
p161
tp162
Rp163
sg13
I1
sg14
I13
sg15
I1
sa(dp164
g2
g3
(g7
S'\xcab\xd69O\r+@'
p165
tp166
Rp167
sg13
I1
sg14
I14
sg15
I1
sa(dp168
g2
g3
(g7
S'\xb2\x86V_*\x80*@'
p169
tp170
Rp171
sg13
I1
sg14
I15
sg15
I1
sa(dp172
g2
g3
(g7
S'r\xce\xbc\x1c\rA+@'
p173
tp174
Rp175
sg13
I1
sg14
I16
sg15
I1
sa(dp176
g2
g3
(g7
S'\xfb%\x9e\xbb\n\xa6*@'
p177
tp178
Rp179
sg13
I1
sg14
I17
sg15
I1
sa(dp180
g2
g3
(g7
S'\x91\x98v&r\x9c)@'
p181
tp182
Rp183
sg13
I1
sg14
I18
sg15
I1
sa(dp184
g2
g3
(g7
S'.3+\x95\x00\x82(@'
p185
tp186
Rp187
sg13
I1
sg14
I19
sg15
I1
sa(dp188
g2
g3
(g7
S"\xb1\xe8\xd0\x99\x91\xef'@"
p189
tp190
Rp191
sg13
I1
sg14
I20
sg15
I1
sa(dp192
g2
g3
(g7
S'\xbc!Y\xc8\x8d\x98(@'
p193
tp194
Rp195
sg13
I1
sg14
I21
sg15
I1
sa(dp196
g2
g3
(g7
S'\x08\xad\x8a\x18b\x82(@'
p197
tp198
Rp199
sg13
I1
sg14
I22
sg15
I1
sa(dp200
g2
g3
(g7
S'\x06\x8fl\x94\xf9\x9b(@'
p201
tp202
Rp203
sg13
I1
sg14
I23
sg15
I1
sa(dp204
g2
g3
(g7
S"\xd1\xf6\xf2\xa1\xdb\xef'@"
p205
tp206
Rp207
sg13
I2
sg14
I0
sg15
I1
sa(dp208
g2
g3
(g7
S"\x8b\xd0\x81'\xd6\xb0'@"
p209
tp210
Rp211
sg13
I2
sg14
I1
sg15
I1
sa(dp212
g2
g3
(g7
S'\xdd$jO\xfeD(@'
p213
tp214
Rp215
sg13
I2
sg14
I2
sg15
I1
sa(dp216
g2
g3
(g7
S'\x88\x93\xe0\xe0Xg)@'
p217
tp218
Rp219
sg13
I2
sg14
I3
sg15
I1
sa(dp220
g2
g3
(g7
S'F\x97oU\xad\x9a,@'
p221
tp222
Rp223
sg13
I2
sg14
I4
sg15
I1
sa(dp224
g2
g3
(g7
S'8\xc2\xa9\xf3f\xb40@'
p225
tp226
Rp227
sg13
I2
sg14
I5
sg15
I1
sa(dp228
g2
g3
(g7
S'\xa0\xc5\xf2q\xfa\xf7-@'
p229
tp230
Rp231
sg13
I2
sg14
I6
sg15
I1
sa(dp232
g2
g3
(g7
S'0\xdd\x0f\xaf \x9b+@'
p233
tp234
Rp235
sg13
I2
sg14
I7
sg15
I1
sa(dp236
g2
g3
(g7
S'\xb7\x11/ \xa5\xb7*@'
p237
tp238
Rp239
sg13
I2
sg14
I8
sg15
I1
sa(dp240
g2
g3
(g7
S'4\x0cHs\x04\x12+@'
p241
tp242
Rp243
sg13
I2
sg14
I9
sg15
I1
sa(dp244
g2
g3
(g7
S'\xa1\x9e\x1b\x95\xcc\xdf)@'
p245
tp246
Rp247
sg13
I2
sg14
I10
sg15
I1
sa(dp248
g2
g3
(g7
S'?\x88+,HM*@'
p249
tp250
Rp251
sg13
I2
sg14
I11
sg15
I1
sa(dp252
g2
g3
(g7
S'\xd0\xb6p@17+@'
p253
tp254
Rp255
sg13
I2
sg14
I12
sg15
I1
sa(dp256
g2
g3
(g7
S'\xe4\x87\x8c\xc2\xf9G*@'
p257
tp258
Rp259
sg13
I2
sg14
I13
sg15
I1
sa(dp260
g2
g3
(g7
S'-V\xe2\xcet\x8d*@'
p261
tp262
Rp263
sg13
I2
sg14
I14
sg15
I1
sa(dp264
g2
g3
(g7
S'fq\x8ayX\xd7*@'
p265
tp266
Rp267
sg13
I2
sg14
I15
sg15
I1
sa(dp268
g2
g3
(g7
S'M\xeb\x05\xb9\xdfq+@'
p269
tp270
Rp271
sg13
I2
sg14
I16
sg15
I1
sa(dp272
g2
g3
(g7
S'\x85Ln\x93k\xfa*@'
p273
tp274
Rp275
sg13
I2
sg14
I17
sg15
I1
sa(dp276
g2
g3
(g7
S'v\xb6\xfa\xb4\xa6\xbc)@'
p277
tp278
Rp279
sg13
I2
sg14
I18
sg15
I1
sa(dp280
g2
g3
(g7
S'hx\x01\x8a\x12\x9b(@'
p281
tp282
Rp283
sg13
I2
sg14
I19
sg15
I1
sa(dp284
g2
g3
(g7
S"\xd2|\xb9p\x84\xe1'@"
p285
tp286
Rp287
sg13
I2
sg14
I20
sg15
I1
sa(dp288
g2
g3
(g7
S'\xfe\x15\xd5+\xaf?(@'
p289
tp290
Rp291
sg13
I2
sg14
I21
sg15
I1
sa(dp292
g2
g3
(g7
S'\x08\xb5X\xd7\xa28)@'
p293
tp294
Rp295
sg13
I2
sg14
I22
sg15
I1
sa(dp296
g2
g3
(g7
S'83\xb2\xae\x16\xa5)@'
p297
tp298
Rp299
sg13
I2
sg14
I23
sg15
I1
sa(dp300
g2
g3
(g7
S'\xe9\xfdm\tze(@'
p301
tp302
Rp303
sg13
I3
sg14
I0
sg15
I1
sa(dp304
g2
g3
(g7
S'x\x80\xc9\x06\x17R(@'
p305
tp306
Rp307
sg13
I3
sg14
I1
sg15
I1
sa(dp308
g2
g3
(g7
S"Z\x1dy\xe4\x91\xe7'@"
p309
tp310
Rp311
sg13
I3
sg14
I2
sg15
I1
sa(dp312
g2
g3
(g7
S'\xeb\xfd\x98\xfb\xd3\xa8)@'
p313
tp314
Rp315
sg13
I3
sg14
I3
sg15
I1
sa(dp316
g2
g3
(g7
S'\xef\x99\xa2\x1dZ\x85,@'
p317
tp318
Rp319
sg13
I3
sg14
I4
sg15
I1
sa(dp320
g2
g3
(g7
S'2\x8a\xf4x^\xfd0@'
p321
tp322
Rp323
sg13
I3
sg14
I5
sg15
I1
sa(dp324
g2
g3
(g7
S'\xc7zq\xa5\xe2F/@'
p325
tp326
Rp327
sg13
I3
sg14
I6
sg15
I1
sa(dp328
g2
g3
(g7
S'\xaf\x80\xab$\x11\x89+@'
p329
tp330
Rp331
sg13
I3
sg14
I7
sg15
I1
sa(dp332
g2
g3
(g7
S'\xca\xb2\xecvX\xd9*@'
p333
tp334
Rp335
sg13
I3
sg14
I8
sg15
I1
sa(dp336
g2
g3
(g7
S'\xa99wH\\\xff*@'
p337
tp338
Rp339
sg13
I3
sg14
I9
sg15
I1
sa(dp340
g2
g3
(g7
S'V\x11Sb\xfc\xb3*@'
p341
tp342
Rp343
sg13
I3
sg14
I10
sg15
I1
sa(dp344
g2
g3
(g7
S'W\xe7\xbd\xc0x\x12+@'
p345
tp346
Rp347
sg13
I3
sg14
I11
sg15
I1
sa(dp348
g2
g3
(g7
S'\x92\x0c\x90\xb6\nU*@'
p349
tp350
Rp351
sg13
I3
sg14
I12
sg15
I1
sa(dp352
g2
g3
(g7
S'\xba\xcf8\x1f\xc1\xce*@'
p353
tp354
Rp355
sg13
I3
sg14
I13
sg15
I1
sa(dp356
g2
g3
(g7
S'T\xb6\xa6\xac)\x93*@'
p357
tp358
Rp359
sg13
I3
sg14
I14
sg15
I1
sa(dp360
g2
g3
(g7
S'\xffp\xdf\xcfl\x91*@'
p361
tp362
Rp363
sg13
I3
sg14
I15
sg15
I1
sa(dp364
g2
g3
(g7
S'\xff\xcaSu\xca\x16,@'
p365
tp366
Rp367
sg13
I3
sg14
I16
sg15
I1
sa(dp368
g2
g3
(g7
S'\x87 \xbb\xe1L\x0b+@'
p369
tp370
Rp371
sg13
I3
sg14
I17
sg15
I1
sa(dp372
g2
g3
(g7
S'\x84\xfa?\xa0\x9d"*@'
p373
tp374
Rp375
sg13
I3
sg14
I18
sg15
I1
sa(dp376
g2
g3
(g7
S'\xf5\xd5E\xd6I+)@'
p377
tp378
Rp379
sg13
I3
sg14
I19
sg15
I1
sa(dp380
g2
g3
(g7
S':\x1a\xd7\x83\xd0%(@'
p381
tp382
Rp383
sg13
I3
sg14
I20
sg15
I1
sa(dp384
g2
g3
(g7
S'\'"\xdc8\xa1\r)@'
p385
tp386
Rp387
sg13
I3
sg14
I21
sg15
I1
sa(dp388
g2
g3
(g7
S'Ls\xd5\xf4>S)@'
p389
tp390
Rp391
sg13
I3
sg14
I22
sg15
I1
sa(dp392
g2
g3
(g7
S'\tV\x1c\x85\x93\x97)@'
p393
tp394
Rp395
sg13
I3
sg14
I23
sg15
I1
sa(dp396
g2
g3
(g7
S'34\x7f5d\xf0*@'
p397
tp398
Rp399
sg13
I4
sg14
I0
sg15
I1
sa(dp400
g2
g3
(g7
S'\xe5\xbb4\xd7\xc6\xcc+@'
p401
tp402
Rp403
sg13
I4
sg14
I1
sg15
I1
sa(dp404
g2
g3
(g7
S'\x1cZ\xa3\x9e\xc1l,@'
p405
tp406
Rp407
sg13
I4
sg14
I2
sg15
I1
sa(dp408
g2
g3
(g7
S'\xc4m\xf5V\xb5\x98,@'
p409
tp410
Rp411
sg13
I4
sg14
I3
sg15
I1
sa(dp412
g2
g3
(g7
S'\x8a\xb3\xe0A\x92\xfa,@'
p413
tp414
Rp415
sg13
I4
sg14
I4
sg15
I1
sa(dp416
g2
g3
(g7
S'\\l\x17\xc4\x99\xc8.@'
p417
tp418
Rp419
sg13
I4
sg14
I5
sg15
I1
sa(dp420
g2
g3
(g7
S'e\xb9_\xc0\xd9#/@'
p421
tp422
Rp423
sg13
I4
sg14
I6
sg15
I1
sa(dp424
g2
g3
(g7
S'\xdb\xf8\xca\x0f9\x13,@'
p425
tp426
Rp427
sg13
I4
sg14
I7
sg15
I1
sa(dp428
g2
g3
(g7
S'~Ns;\x92J+@'
p429
tp430
Rp431
sg13
I4
sg14
I8
sg15
I1
sa(dp432
g2
g3
(g7
S'D$\xcd#\xaa\xa1+@'
p433
tp434
Rp435
sg13
I4
sg14
I9
sg15
I1
sa(dp436
g2
g3
(g7
S'\x18{\xa8zj\x81*@'
p437
tp438
Rp439
sg13
I4
sg14
I10
sg15
I1
sa(dp440
g2
g3
(g7
S'T\xda.q\xe2l+@'
p441
tp442
Rp443
sg13
I4
sg14
I11
sg15
I1
sa(dp444
g2
g3
(g7
S'\xbf\x1e\x87\x96-V*@'
p445
tp446
Rp447
sg13
I4
sg14
I12
sg15
I1
sa(dp448
g2
g3
(g7
S'\x8e\xdfV\xc7\xf5\xd6*@'
p449
tp450
Rp451
sg13
I4
sg14
I13
sg15
I1
sa(dp452
g2
g3
(g7
S'\xed\x1c\xecr\xbbV*@'
p453
tp454
Rp455
sg13
I4
sg14
I14
sg15
I1
sa(dp456
g2
g3
(g7
S'K\xb4\xa0\xbb\xbf\x8d*@'
p457
tp458
Rp459
sg13
I4
sg14
I15
sg15
I1
sa(dp460
g2
g3
(g7
S'\x0f\xef\xc5\xa6\xb8\xcb+@'
p461
tp462
Rp463
sg13
I4
sg14
I16
sg15
I1
sa(dp464
g2
g3
(g7
S'\xf0?J\xc0vV+@'
p465
tp466
Rp467
sg13
I4
sg14
I17
sg15
I1
sa(dp468
g2
g3
(g7
S'\x83\xe4\x02\xd0\xe3M*@'
p469
tp470
Rp471
sg13
I4
sg14
I18
sg15
I1
sa(dp472
g2
g3
(g7
S'B\xd6KIv\xd3)@'
p473
tp474
Rp475
sg13
I4
sg14
I19
sg15
I1
sa(dp476
g2
g3
(g7
S'\xd6\x1b\xe1\xe1\x92\xd2(@'
p477
tp478
Rp479
sg13
I4
sg14
I20
sg15
I1
sa(dp480
g2
g3
(g7
S'M\xa5\xb7\xd8#()@'
p481
tp482
Rp483
sg13
I4
sg14
I21
sg15
I1
sa(dp484
g2
g3
(g7
S'\x9d\x86\xe5\x11\x1ej)@'
p485
tp486
Rp487
sg13
I4
sg14
I22
sg15
I1
sa(dp488
g2
g3
(g7
S'6\x90TL7\x07*@'
p489
tp490
Rp491
sg13
I4
sg14
I23
sg15
I1
sa(dp492
g2
g3
(g7
S'\xa1\xc5`\xd4G,*@'
p493
tp494
Rp495
sg13
I5
sg14
I0
sg15
I1
sa(dp496
g2
g3
(g7
S'\x84\x0f\xed\xbeJ\xc4)@'
p497
tp498
Rp499
sg13
I5
sg14
I1
sg15
I1
sa(dp500
g2
g3
(g7
S'"\xe2\xb5<\xd06*@'
p501
tp502
Rp503
sg13
I5
sg14
I2
sg15
I1
sa(dp504
g2
g3
(g7
S'\x1f\xa4J\x1c\xcdz+@'
p505
tp506
Rp507
sg13
I5
sg14
I3
sg15
I1
sa(dp508
g2
g3
(g7
S'nY7J\xb3\xb3+@'
p509
tp510
Rp511
sg13
I5
sg14
I4
sg15
I1
sa(dp512
g2
g3
(g7
S'/U|\xeao\xf2-@'
p513
tp514
Rp515
sg13
I5
sg14
I5
sg15
I1
sa(dp516
g2
g3
(g7
S'\xf8h\xdf\x96a\xf5-@'
p517
tp518
Rp519
sg13
I5
sg14
I6
sg15
I1
sa(dp520
g2
g3
(g7
S'\xea4\xcb\x19\x17},@'
p521
tp522
Rp523
sg13
I5
sg14
I7
sg15
I1
sa(dp524
g2
g3
(g7
S'\xd5\x15,\x8e]k+@'
p525
tp526
Rp527
sg13
I5
sg14
I8
sg15
I1
sa(dp528
g2
g3
(g7
S'\xd3[\xd5I\x99\x04*@'
p529
tp530
Rp531
sg13
I5
sg14
I9
sg15
I1
sa(dp532
g2
g3
(g7
S']\xd0v\x8a\x1f\x91)@'
p533
tp534
Rp535
sg13
I5
sg14
I10
sg15
I1
sa(dp536
g2
g3
(g7
S'J\x03 .\xaf\x8b)@'
p537
tp538
Rp539
sg13
I5
sg14
I11
sg15
I1
sa(dp540
g2
g3
(g7
S'\t\x11?\xf2\x1f\x9c)@'
p541
tp542
Rp543
sg13
I5
sg14
I12
sg15
I1
sa(dp544
g2
g3
(g7
S'\xbd\xce\xebE;\xf6)@'
p545
tp546
Rp547
sg13
I5
sg14
I13
sg15
I1
sa(dp548
g2
g3
(g7
S'\x1e\xd9\x07\x0fS\x13*@'
p549
tp550
Rp551
sg13
I5
sg14
I14
sg15
I1
sa(dp552
g2
g3
(g7
S'\xde+\xdf\r\xe6q*@'
p553
tp554
Rp555
sg13
I5
sg14
I15
sg15
I1
sa(dp556
g2
g3
(g7
S'2y\x01p\xee\x16*@'
p557
tp558
Rp559
sg13
I5
sg14
I16
sg15
I1
sa(dp560
g2
g3
(g7
S'\xf2yE\xdc2S*@'
p561
tp562
Rp563
sg13
I5
sg14
I17
sg15
I1
sa(dp564
g2
g3
(g7
S'\x94\xd8n\x0e\x8a\xd6)@'
p565
tp566
Rp567
sg13
I5
sg14
I18
sg15
I1
sa(dp568
g2
g3
(g7
S'e0\x7f\x8e-\x96)@'
p569
tp570
Rp571
sg13
I5
sg14
I19
sg15
I1
sa(dp572
g2
g3
(g7
S'\xc0\x1c\xa3\x17Y\x95)@'
p573
tp574
Rp575
sg13
I5
sg14
I20
sg15
I1
sa(dp576
g2
g3
(g7
S'\x84\xa6\xea\xbc\xf4\xfb)@'
p577
tp578
Rp579
sg13
I5
sg14
I21
sg15
I1
sa(dp580
g2
g3
(g7
S'\xaf"*\x90\xa9\x81*@'
p581
tp582
Rp583
sg13
I5
sg14
I22
sg15
I1
sa(dp584
g2
g3
(g7
S'L\x98\x11\xa6P\xe0*@'
p585
tp586
Rp587
sg13
I5
sg14
I23
sg15
I1
sa(dp588
g2
g3
(g7
S'g\x8dq5\xdaE+@'
p589
tp590
Rp591
sg13
I6
sg14
I0
sg15
I1
sa(dp592
g2
g3
(g7
S'\xd0\xc30\r\x13\xa1*@'
p593
tp594
Rp595
sg13
I6
sg14
I1
sg15
I1
sa(dp596
g2
g3
(g7
S'O\xb7zx\x8eB+@'
p597
tp598
Rp599
sg13
I6
sg14
I2
sg15
I1
sa(dp600
g2
g3
(g7
S'E\x98\xb7\xba%\xc2+@'
p601
tp602
Rp603
sg13
I6
sg14
I3
sg15
I1
sa(dp604
g2
g3
(g7
S'\xae\xc0)pv\xbd+@'
p605
tp606
Rp607
sg13
I6
sg14
I4
sg15
I1
sa(dp608
g2
g3
(g7
S'\xed\xdc$\xcb\xb5\xcd,@'
p609
tp610
Rp611
sg13
I6
sg14
I5
sg15
I1
sa(dp612
g2
g3
(g7
S'H\xb6I\xb0\x14\x12.@'
p613
tp614
Rp615
sg13
I6
sg14
I6
sg15
I1
sa(dp616
g2
g3
(g7
S'5\xf4\xccT\xf4\x01-@'
p617
tp618
Rp619
sg13
I6
sg14
I7
sg15
I1
sa(dp620
g2
g3
(g7
S'0\xb2\xe9\xe1\xd2\xa8+@'
p621
tp622
Rp623
sg13
I6
sg14
I8
sg15
I1
sa(dp624
g2
g3
(g7
S'RL\x88\x81\xcf\xf5*@'
p625
tp626
Rp627
sg13
I6
sg14
I9
sg15
I1
sa(dp628
g2
g3
(g7
S'\xb8\x85<\x8c\x19\xfa)@'
p629
tp630
Rp631
sg13
I6
sg14
I10
sg15
I1
sa(dp632
g2
g3
(g7
S'\xa2P\xdd\xaa\xad\xf3)@'
p633
tp634
Rp635
sg13
I6
sg14
I11
sg15
I1
sa(dp636
g2
g3
(g7
S'\xacs\xb5$\xdb\xe0)@'
p637
tp638
Rp639
sg13
I6
sg14
I12
sg15
I1
sa(dp640
g2
g3
(g7
S'm\xbb\xa7#\xc1;*@'
p641
tp642
Rp643
sg13
I6
sg14
I13
sg15
I1
sa(dp644
g2
g3
(g7
S'\x83\xf7\xc0\x99\x18\x18+@'
p645
tp646
Rp647
sg13
I6
sg14
I14
sg15
I1
sa(dp648
g2
g3
(g7
S'j\x10\xe8\x0b\xcc\xca)@'
p649
tp650
Rp651
sg13
I6
sg14
I15
sg15
I1
sa(dp652
g2
g3
(g7
S'\xcd;q\xc5\\\xe2)@'
p653
tp654
Rp655
sg13
I6
sg14
I16
sg15
I1
sa(dp656
g2
g3
(g7
S':X"p\xa8\x8e)@'
p657
tp658
Rp659
sg13
I6
sg14
I17
sg15
I1
sa(dp660
g2
g3
(g7
S'\xf4\xa9\x923#\x1d)@'
p661
tp662
Rp663
sg13
I6
sg14
I18
sg15
I1
sa(dp664
g2
g3
(g7
S'\xd1B~Cg\xfa(@'
p665
tp666
Rp667
sg13
I6
sg14
I19
sg15
I1
sa(dp668
g2
g3
(g7
S'h-\r\x88\xe3?)@'
p669
tp670
Rp671
sg13
I6
sg14
I20
sg15
I1
sa(dp672
g2
g3
(g7
S'\xffD\x04\x83\xf77)@'
p673
tp674
Rp675
sg13
I6
sg14
I21
sg15
I1
sa(dp676
g2
g3
(g7
S'\xc7\x93\xc8\x10R\xc5)@'
p677
tp678
Rp679
sg13
I6
sg14
I22
sg15
I1
sa(dp680
g2
g3
(g7
S'\x16\xa4\x8d9\x0c6)@'
p681
tp682
Rp683
sg13
I6
sg14
I23
sg15
I1
sa(dp684
g2
g3
(g7
S'\xc36im\xdc\x00)@'
p685
tp686
Rp687
sg13
I0
sg14
I0
sg15
I2
sa(dp688
g2
g3
(g7
S']+\x89K1m(@'
p689
tp690
Rp691
sg13
I0
sg14
I1
sg15
I2
sa(dp692
g2
g3
(g7
S'f\xcdS\xa0g\xb4(@'
p693
tp694
Rp695
sg13
I0
sg14
I2
sg15
I2
sa(dp696
g2
g3
(g7
S'OR~\x07H\xd3)@'
p697
tp698
Rp699
sg13
I0
sg14
I3
sg15
I2
sa(dp700
g2
g3
(g7
S'$W\xa5d\x9d\xea-@'
p701
tp702
Rp703
sg13
I0
sg14
I4
sg15
I2
sa(dp704
g2
g3
(g7
S'\x93bK\xef\xf5\x072@'
p705
tp706
Rp707
sg13
I0
sg14
I5
sg15
I2
sa(dp708
g2
g3
(g7
S'\xcd\xb3n83\x160@'
p709
tp710
Rp711
sg13
I0
sg14
I6
sg15
I2
sa(dp712
g2
g3
(g7
S"\xe1T\r'S\xa6,@"
p713
tp714
Rp715
sg13
I0
sg14
I7
sg15
I2
sa(dp716
g2
g3
(g7
S'P\xb5\xbc\xd1\x93/+@'
p717
tp718
Rp719
sg13
I0
sg14
I8
sg15
I2
sa(dp720
g2
g3
(g7
S'R\x93\x89A\x84\x82*@'
p721
tp722
Rp723
sg13
I0
sg14
I9
sg15
I2
sa(dp724
g2
g3
(g7
S'{hR\xd5\xd9p)@'
p725
tp726
Rp727
sg13
I0
sg14
I10
sg15
I2
sa(dp728
g2
g3
(g7
S'\xfdz2*\x0b+)@'
p729
tp730
Rp731
sg13
I0
sg14
I11
sg15
I2
sa(dp732
g2
g3
(g7
S'\xa4\xd3H\x0f$\xde)@'
p733
tp734
Rp735
sg13
I0
sg14
I12
sg15
I2
sa(dp736
g2
g3
(g7
S'\x16\xe1e\x02\xa7j)@'
p737
tp738
Rp739
sg13
I0
sg14
I13
sg15
I2
sa(dp740
g2
g3
(g7
S'\xba\xab\x10\x03\xa3\xa0)@'
p741
tp742
Rp743
sg13
I0
sg14
I14
sg15
I2
sa(dp744
g2
g3
(g7
S'\xaf\xa5\x8a\xc3\x12\xe5)@'
p745
tp746
Rp747
sg13
I0
sg14
I15
sg15
I2
sa(dp748
g2
g3
(g7
S'\r\x1e?\x9dO\xf5*@'
p749
tp750
Rp751
sg13
I0
sg14
I16
sg15
I2
sa(dp752
g2
g3
(g7
S'\x0e\x0c|\xea\xc1\x10*@'
p753
tp754
Rp755
sg13
I0
sg14
I17
sg15
I2
sa(dp756
g2
g3
(g7
S'\x9c\x11X\x1cz\xbc(@'
p757
tp758
Rp759
sg13
I0
sg14
I18
sg15
I2
sa(dp760
g2
g3
(g7
S'^\x8f2]U+(@'
p761
tp762
Rp763
sg13
I0
sg14
I19
sg15
I2
sa(dp764
g2
g3
(g7
S"\n\x92\x90\x03\x10\xd8'@"
p765
tp766
Rp767
sg13
I0
sg14
I20
sg15
I2
sa(dp768
g2
g3
(g7
S"\xa3\xeb\xb8\xe5\x1f\xf8'@"
p769
tp770
Rp771
sg13
I0
sg14
I21
sg15
I2
sa(dp772
g2
g3
(g7
S'\xc1\xec3\xe9j}(@'
p773
tp774
Rp775
sg13
I0
sg14
I22
sg15
I2
sa(dp776
g2
g3
(g7
S'(\xc6\x11\x95\xeeO(@'
p777
tp778
Rp779
sg13
I0
sg14
I23
sg15
I2
sa(dp780
g2
g3
(g7
S"\xec\xaays\xbc\x86'@"
p781
tp782
Rp783
sg13
I1
sg14
I0
sg15
I2
sa(dp784
g2
g3
(g7
S'"\xa5E\x1cam\'@'
p785
tp786
Rp787
sg13
I1
sg14
I1
sg15
I2
sa(dp788
g2
g3
(g7
S'\xc2\xdf\xc2\xc0\xcc\x88(@'
p789
tp790
Rp791
sg13
I1
sg14
I2
sg15
I2
sa(dp792
g2
g3
(g7
S'\xec\xd0\xcb\xf3v\xf8(@'
p793
tp794
Rp795
sg13
I1
sg14
I3
sg15
I2
sa(dp796
g2
g3
(g7
S'\xecyX6\x14\xf2,@'
p797
tp798
Rp799
sg13
I1
sg14
I4
sg15
I2
sa(dp800
g2
g3
(g7
S'\x1f\xba<\xb5\x03\x9c1@'
p801
tp802
Rp803
sg13
I1
sg14
I5
sg15
I2
sa(dp804
g2
g3
(g7
S'\x1ev\xd3[\xb6R/@'
p805
tp806
Rp807
sg13
I1
sg14
I6
sg15
I2
sa(dp808
g2
g3
(g7
S"\xe4\xfe\x19'?\xdb+@"
p809
tp810
Rp811
sg13
I1
sg14
I7
sg15
I2
sa(dp812
g2
g3
(g7
S'\xc5\x89\x86v}(+@'
p813
tp814
Rp815
sg13
I1
sg14
I8
sg15
I2
sa(dp816
g2
g3
(g7
S'\xa8\xc1+sU\x84*@'
p817
tp818
Rp819
sg13
I1
sg14
I9
sg15
I2
sa(dp820
g2
g3
(g7
S'Q\x0f\x1e}\xd1k*@'
p821
tp822
Rp823
sg13
I1
sg14
I10
sg15
I2
sa(dp824
g2
g3
(g7
S'+\xe6\x85\xc12\xc6)@'
p825
tp826
Rp827
sg13
I1
sg14
I11
sg15
I2
sa(dp828
g2
g3
(g7
S'T\xa8\xa0|\xd0r)@'
p829
tp830
Rp831
sg13
I1
sg14
I12
sg15
I2
sa(dp832
g2
g3
(g7
S'\xd0\xf1\xf8R\x91\x0c)@'
p833
tp834
Rp835
sg13
I1
sg14
I13
sg15
I2
sa(dp836
g2
g3
(g7
S')H\x80\x8cs\x86(@'
p837
tp838
Rp839
sg13
I1
sg14
I14
sg15
I2
sa(dp840
g2
g3
(g7
S'j7\xe9\xeb8f)@'
p841
tp842
Rp843
sg13
I1
sg14
I15
sg15
I2
sa(dp844
g2
g3
(g7
S'L\x08\x02\x02\t\xd5*@'
p845
tp846
Rp847
sg13
I1
sg14
I16
sg15
I2
sa(dp848
g2
g3
(g7
S'Qdh\xa5Ei*@'
p849
tp850
Rp851
sg13
I1
sg14
I17
sg15
I2
sa(dp852
g2
g3
(g7
S'dn\xabW\x12\x07)@'
p853
tp854
Rp855
sg13
I1
sg14
I18
sg15
I2
sa(dp856
g2
g3
(g7
S'r_\x7f\t\x06$(@'
p857
tp858
Rp859
sg13
I1
sg14
I19
sg15
I2
sa(dp860
g2
g3
(g7
S"\xe0\x84\xa59\xf1\xaa'@"
p861
tp862
Rp863
sg13
I1
sg14
I20
sg15
I2
sa(dp864
g2
g3
(g7
S'5\x17!\x0er\x03(@'
p865
tp866
Rp867
sg13
I1
sg14
I21
sg15
I2
sa(dp868
g2
g3
(g7
S'\xec\x02-\x81\xea\xec(@'
p869
tp870
Rp871
sg13
I1
sg14
I22
sg15
I2
sa(dp872
g2
g3
(g7
S'\x83+\xa2\xfc\x17\x91(@'
p873
tp874
Rp875
sg13
I1
sg14
I23
sg15
I2
sa(dp876
g2
g3
(g7
S"O\x8a:\xe7-\x93'@"
p877
tp878
Rp879
sg13
I2
sg14
I0
sg15
I2
sa(dp880
g2
g3
(g7
S"\xd6\x99\xafoe\xd1'@"
p881
tp882
Rp883
sg13
I2
sg14
I1
sg15
I2
sa(dp884
g2
g3
(g7
S'\xd7\xf0\x9d\x1b\xdf9(@'
p885
tp886
Rp887
sg13
I2
sg14
I2
sg15
I2
sa(dp888
g2
g3
(g7
S'J\xae\xbawHh)@'
p889
tp890
Rp891
sg13
I2
sg14
I3
sg15
I2
sa(dp892
g2
g3
(g7
S'|\xbb=a\n,-@'
p893
tp894
Rp895
sg13
I2
sg14
I4
sg15
I2
sa(dp896
g2
g3
(g7
S'Xz\xc5\xe1\xb6\x851@'
p897
tp898
Rp899
sg13
I2
sg14
I5
sg15
I2
sa(dp900
g2
g3
(g7
S'r.\xbe@\x91Y/@'
p901
tp902
Rp903
sg13
I2
sg14
I6
sg15
I2
sa(dp904
g2
g3
(g7
S'\x01k\x10\xb4\x7f\x95+@'
p905
tp906
Rp907
sg13
I2
sg14
I7
sg15
I2
sa(dp908
g2
g3
(g7
S'\x83\xbf\xedU\x02\x0e+@'
p909
tp910
Rp911
sg13
I2
sg14
I8
sg15
I2
sa(dp912
g2
g3
(g7
S'<\xcb\xb0\x92\x0cp*@'
p913
tp914
Rp915
sg13
I2
sg14
I9
sg15
I2
sa(dp916
g2
g3
(g7
S'\x8e\x9ar7\x85\xda)@'
p917
tp918
Rp919
sg13
I2
sg14
I10
sg15
I2
sa(dp920
g2
g3
(g7
S'\x06\xf9EC\xdc\x83)@'
p921
tp922
Rp923
sg13
I2
sg14
I11
sg15
I2
sa(dp924
g2
g3
(g7
S'\x18\xcc\x84\xc4\xe8\x0b)@'
p925
tp926
Rp927
sg13
I2
sg14
I12
sg15
I2
sa(dp928
g2
g3
(g7
S'1\xc0\x0e\xcb\x0b2)@'
p929
tp930
Rp931
sg13
I2
sg14
I13
sg15
I2
sa(dp932
g2
g3
(g7
S'\x11\xf2\xb1\xc4.\x94)@'
p933
tp934
Rp935
sg13
I2
sg14
I14
sg15
I2
sa(dp936
g2
g3
(g7
S'\xe4\xfe\xd9\x94\x00f)@'
p937
tp938
Rp939
sg13
I2
sg14
I15
sg15
I2
sa(dp940
g2
g3
(g7
S'\x96\xec\xd3\xb9?\xc4*@'
p941
tp942
Rp943
sg13
I2
sg14
I16
sg15
I2
sa(dp944
g2
g3
(g7
S'L@=R\xfa@*@'
p945
tp946
Rp947
sg13
I2
sg14
I17
sg15
I2
sa(dp948
g2
g3
(g7
S'\x9ca6Uo5)@'
p949
tp950
Rp951
sg13
I2
sg14
I18
sg15
I2
sa(dp952
g2
g3
(g7
S'\xbc>\x01\x91\x05#(@'
p953
tp954
Rp955
sg13
I2
sg14
I19
sg15
I2
sa(dp956
g2
g3
(g7
S"\xcf@\xadtik'@"
p957
tp958
Rp959
sg13
I2
sg14
I20
sg15
I2
sa(dp960
g2
g3
(g7
S'\xa2)V\xc4\xd2\x8f(@'
p961
tp962
Rp963
sg13
I2
sg14
I21
sg15
I2
sa(dp964
g2
g3
(g7
S'\xb0y\x8fn\xc4\x12)@'
p965
tp966
Rp967
sg13
I2
sg14
I22
sg15
I2
sa(dp968
g2
g3
(g7
S'$\x9d\xd9I\x9d\x8c(@'
p969
tp970
Rp971
sg13
I2
sg14
I23
sg15
I2
sa(dp972
g2
g3
(g7
S"\x8dM\xc7\x1b\xa8\xe9'@"
p973
tp974
Rp975
sg13
I3
sg14
I0
sg15
I2
sa(dp976
g2
g3
(g7
S"\x1c\xd1-\x02\xe6\xcf'@"
p977
tp978
Rp979
sg13
I3
sg14
I1
sg15
I2
sa(dp980
g2
g3
(g7
S'&\xdc!\x7f(y(@'
p981
tp982
Rp983
sg13
I3
sg14
I2
sg15
I2
sa(dp984
g2
g3
(g7
S'k\xfa$\x9ex\x10)@'
p985
tp986
Rp987
sg13
I3
sg14
I3
sg15
I2
sa(dp988
g2
g3
(g7
S'jP\xbb\x95\x9d@.@'
p989
tp990
Rp991
sg13
I3
sg14
I4
sg15
I2
sa(dp992
g2
g3
(g7
S'o\xed\x13q\xa2\xdf1@'
p993
tp994
Rp995
sg13
I3
sg14
I5
sg15
I2
sa(dp996
g2
g3
(g7
S'\xc4\x1c\xddq\x11\x070@'
p997
tp998
Rp999
sg13
I3
sg14
I6
sg15
I2
sa(dp1000
g2
g3
(g7
S"m\x8cxB'\x0b,@"
p1001
tp1002
Rp1003
sg13
I3
sg14
I7
sg15
I2
sa(dp1004
g2
g3
(g7
S'1\xa9\xbb"\xb2!+@'
p1005
tp1006
Rp1007
sg13
I3
sg14
I8
sg15
I2
sa(dp1008
g2
g3
(g7
S'p3\xb8&\xaa\x88+@'
p1009
tp1010
Rp1011
sg13
I3
sg14
I9
sg15
I2
sa(dp1012
g2
g3
(g7
S'$O( \x82V*@'
p1013
tp1014
Rp1015
sg13
I3
sg14
I10
sg15
I2
sa(dp1016
g2
g3
(g7
S'\tD\x82\x06\x83\x91*@'
p1017
tp1018
Rp1019
sg13
I3
sg14
I11
sg15
I2
sa(dp1020
g2
g3
(g7
S'\xb1\xd0\x83\xc0\t\xce)@'
p1021
tp1022
Rp1023
sg13
I3
sg14
I12
sg15
I2
sa(dp1024
g2
g3
(g7
S'\xbc\xea\xa6!C(*@'
p1025
tp1026
Rp1027
sg13
I3
sg14
I13
sg15
I2
sa(dp1028
g2
g3
(g7
S'_\x1c\xb7\xd3pM*@'
p1029
tp1030
Rp1031
sg13
I3
sg14
I14
sg15
I2
sa(dp1032
g2
g3
(g7
S'\xa9\x1a\xbc~\xd5\xe5)@'
p1033
tp1034
Rp1035
sg13
I3
sg14
I15
sg15
I2
sa(dp1036
g2
g3
(g7
S'\xe6\x9e\x94\x82\x933+@'
p1037
tp1038
Rp1039
sg13
I3
sg14
I16
sg15
I2
sa(dp1040
g2
g3
(g7
S'\xb9\xb7\xbb\xbb\xbb\xdb*@'
p1041
tp1042
Rp1043
sg13
I3
sg14
I17
sg15
I2
sa(dp1044
g2
g3
(g7
S'\\\xad\x84\xf0\x07\x83)@'
p1045
tp1046
Rp1047
sg13
I3
sg14
I18
sg15
I2
sa(dp1048
g2
g3
(g7
S'\xfa\xef\x94\x9el\x9b(@'
p1049
tp1050
Rp1051
sg13
I3
sg14
I19
sg15
I2
sa(dp1052
g2
g3
(g7
S"N\x96\x0f\xb8S\xd1'@"
p1053
tp1054
Rp1055
sg13
I3
sg14
I20
sg15
I2
sa(dp1056
g2
g3
(g7
S'\xd6/\x1e\xb51\x15(@'
p1057
tp1058
Rp1059
sg13
I3
sg14
I21
sg15
I2
sa(dp1060
g2
g3
(g7
S'\x92$\xec\xc4 e(@'
p1061
tp1062
Rp1063
sg13
I3
sg14
I22
sg15
I2
sa(dp1064
g2
g3
(g7
S'q\x1d\x9aF\xfa\xe3(@'
p1065
tp1066
Rp1067
sg13
I3
sg14
I23
sg15
I2
sa(dp1068
g2
g3
(g7
S'%CX\x1f\x1e;(@'
p1069
tp1070
Rp1071
sg13
I4
sg14
I0
sg15
I2
sa(dp1072
g2
g3
(g7
S"\xa52\xc7\x8f;'(@"
p1073
tp1074
Rp1075
sg13
I4
sg14
I1
sg15
I2
sa(dp1076
g2
g3
(g7
S'a\x8b\x1e\x01\xd7\xef(@'
p1077
tp1078
Rp1079
sg13
I4
sg14
I2
sg15
I2
sa(dp1080
g2
g3
(g7
S'eM\xb5~a\xac)@'
p1081
tp1082
Rp1083
sg13
I4
sg14
I3
sg15
I2
sa(dp1084
g2
g3
(g7
S'Zk\x8c\xc8%e-@'
p1085
tp1086
Rp1087
sg13
I4
sg14
I4
sg15
I2
sa(dp1088
g2
g3
(g7
S'\x89\xe6\x08\x90\x01\xdc0@'
p1089
tp1090
Rp1091
sg13
I4
sg14
I5
sg15
I2
sa(dp1092
g2
g3
(g7
S'\xf4\x18@k\x02X/@'
p1093
tp1094
Rp1095
sg13
I4
sg14
I6
sg15
I2
sa(dp1096
g2
g3
(g7
S'*\x977\xdc\x9a\x9d,@'
p1097
tp1098
Rp1099
sg13
I4
sg14
I7
sg15
I2
sa(dp1100
g2
g3
(g7
S'w\x1f\x99\x1c\xec\x88+@'
p1101
tp1102
Rp1103
sg13
I4
sg14
I8
sg15
I2
sa(dp1104
g2
g3
(g7
S'mp`\xb1\x92\xd7*@'
p1105
tp1106
Rp1107
sg13
I4
sg14
I9
sg15
I2
sa(dp1108
g2
g3
(g7
S'\xb9h\x10\xfa\xdf\x05*@'
p1109
tp1110
Rp1111
sg13
I4
sg14
I10
sg15
I2
sa(dp1112
g2
g3
(g7
S'\\Ek\xd0\xc3a*@'
p1113
tp1114
Rp1115
sg13
I4
sg14
I11
sg15
I2
sa(dp1116
g2
g3
(g7
S'\xe6\xc5\x0b\xcc\x91s*@'
p1117
tp1118
Rp1119
sg13
I4
sg14
I12
sg15
I2
sa(dp1120
g2
g3
(g7
S'\xb1#\xf7\x9a\x8b\x08*@'
p1121
tp1122
Rp1123
sg13
I4
sg14
I13
sg15
I2
sa(dp1124
g2
g3
(g7
S'\x03I\xd0\x1f\x1c\x99*@'
p1125
tp1126
Rp1127
sg13
I4
sg14
I14
sg15
I2
sa(dp1128
g2
g3
(g7
S'\\\x8a\x1dH A*@'
p1129
tp1130
Rp1131
sg13
I4
sg14
I15
sg15
I2
sa(dp1132
g2
g3
(g7
S'\xf7\xa9\x9c\xea\xb7|+@'
p1133
tp1134
Rp1135
sg13
I4
sg14
I16
sg15
I2
sa(dp1136
g2
g3
(g7
S'\x85\xdd\xc4W\xb0\xd9*@'
p1137
tp1138
Rp1139
sg13
I4
sg14
I17
sg15
I2
sa(dp1140
g2
g3
(g7
S'\x9c\xbb6\x94E\x1a*@'
p1141
tp1142
Rp1143
sg13
I4
sg14
I18
sg15
I2
sa(dp1144
g2
g3
(g7
S'\xcf\x18\x15\x9d\xf4\x8d)@'
p1145
tp1146
Rp1147
sg13
I4
sg14
I19
sg15
I2
sa(dp1148
g2
g3
(g7
S'.\xc95D\xb7\xb2(@'
p1149
tp1150
Rp1151
sg13
I4
sg14
I20
sg15
I2
sa(dp1152
g2
g3
(g7
S'h}\x9c\xf8%\xa2(@'
p1153
tp1154
Rp1155
sg13
I4
sg14
I21
sg15
I2
sa(dp1156
g2
g3
(g7
S'\xd3=\x99\xde\x04\x89)@'
p1157
tp1158
Rp1159
sg13
I4
sg14
I22
sg15
I2
sa(dp1160
g2
g3
(g7
S'\xc1\xa2\x05\xc4t\x1e*@'
p1161
tp1162
Rp1163
sg13
I4
sg14
I23
sg15
I2
sa(dp1164
g2
g3
(g7
S'\xa7C\xc9}\xe1\x13*@'
p1165
tp1166
Rp1167
sg13
I5
sg14
I0
sg15
I2
sa(dp1168
g2
g3
(g7
S'\xba\x05\xf17f\xea)@'
p1169
tp1170
Rp1171
sg13
I5
sg14
I1
sg15
I2
sa(dp1172
g2
g3
(g7
S'mYG\x9e\x0f\x9b*@'
p1173
tp1174
Rp1175
sg13
I5
sg14
I2
sg15
I2
sa(dp1176
g2
g3
(g7
S'\xc2\xfa\x95\x0c\x1cP+@'
p1177
tp1178
Rp1179
sg13
I5
sg14
I3
sg15
I2
sa(dp1180
g2
g3
(g7
S'$\xd2l\xa08\xa5+@'
p1181
tp1182
Rp1183
sg13
I5
sg14
I4
sg15
I2
sa(dp1184
g2
g3
(g7
S'\xaf\x101\xe6\xd5\x90.@'
p1185
tp1186
Rp1187
sg13
I5
sg14
I5
sg15
I2
sa(dp1188
g2
g3
(g7
S'\xf8O\x9c\xe3\x15\x19/@'
p1189
tp1190
Rp1191
sg13
I5
sg14
I6
sg15
I2
sa(dp1192
g2
g3
(g7
S'\xeeh\x9c\xdc\xc8\x06-@'
p1193
tp1194
Rp1195
sg13
I5
sg14
I7
sg15
I2
sa(dp1196
g2
g3
(g7
S'j\xb8\xf7\xef-\xeb*@'
p1197
tp1198
Rp1199
sg13
I5
sg14
I8
sg15
I2
sa(dp1200
g2
g3
(g7
S'\xf6Mq\x93=\x0f*@'
p1201
tp1202
Rp1203
sg13
I5
sg14
I9
sg15
I2
sa(dp1204
g2
g3
(g7
S'\xbe\xc41\xaa\xe9T)@'
p1205
tp1206
Rp1207
sg13
I5
sg14
I10
sg15
I2
sa(dp1208
g2
g3
(g7
S'\x83YN\xf9\xd6\xda)@'
p1209
tp1210
Rp1211
sg13
I5
sg14
I11
sg15
I2
sa(dp1212
g2
g3
(g7
S'\x88K\x9f\xd8\x07\xcd)@'
p1213
tp1214
Rp1215
sg13
I5
sg14
I12
sg15
I2
sa(dp1216
g2
g3
(g7
S'\xa3.*?\xa58*@'
p1217
tp1218
Rp1219
sg13
I5
sg14
I13
sg15
I2
sa(dp1220
g2
g3
(g7
S'j\x9b\xbe\xf6\x0b\xea)@'
p1221
tp1222
Rp1223
sg13
I5
sg14
I14
sg15
I2
sa(dp1224
g2
g3
(g7
S'\xf7\xc3JWbg)@'
p1225
tp1226
Rp1227
sg13
I5
sg14
I15
sg15
I2
sa(dp1228
g2
g3
(g7
S'\xdf\xb6\xef\xda\xa7e)@'
p1229
tp1230
Rp1231
sg13
I5
sg14
I16
sg15
I2
sa(dp1232
g2
g3
(g7
S'k\xe5\x97\\\xff\xa8)@'
p1233
tp1234
Rp1235
sg13
I5
sg14
I17
sg15
I2
sa(dp1236
g2
g3
(g7
S'Y\x16\xdfv\xb0\xa8)@'
p1237
tp1238
Rp1239
sg13
I5
sg14
I18
sg15
I2
sa(dp1240
g2
g3
(g7
S'>wj\xa3ki)@'
p1241
tp1242
Rp1243
sg13
I5
sg14
I19
sg15
I2
sa(dp1244
g2
g3
(g7
S'\x08\x1e\x94\xaa\xb3\xbd)@'
p1245
tp1246
Rp1247
sg13
I5
sg14
I20
sg15
I2
sa(dp1248
g2
g3
(g7
S'\x7fa&\x02\x89\x92)@'
p1249
tp1250
Rp1251
sg13
I5
sg14
I21
sg15
I2
sa(dp1252
g2
g3
(g7
S'D\x0e8\xa4C\x97*@'
p1253
tp1254
Rp1255
sg13
I5
sg14
I22
sg15
I2
sa(dp1256
g2
g3
(g7
S'"\x11\x10(\'x+@'
p1257
tp1258
Rp1259
sg13
I5
sg14
I23
sg15
I2
sa(dp1260
g2
g3
(g7
S'\xc0\xc8u~A\x19+@'
p1261
tp1262
Rp1263
sg13
I6
sg14
I0
sg15
I2
sa(dp1264
g2
g3
(g7
S'rDE\xb9B\xf1*@'
p1265
tp1266
Rp1267
sg13
I6
sg14
I1
sg15
I2
sa(dp1268
g2
g3
(g7
S'\x88u\xa6\xdf\xe33+@'
p1269
tp1270
Rp1271
sg13
I6
sg14
I2
sg15
I2
sa(dp1272
g2
g3
(g7
S'Y\xb3RL\xb9\n,@'
p1273
tp1274
Rp1275
sg13
I6
sg14
I3
sg15
I2
sa(dp1276
g2
g3
(g7
S'\x19p\xf1\x04B:,@'
p1277
tp1278
Rp1279
sg13
I6
sg14
I4
sg15
I2
sa(dp1280
g2
g3
(g7
S'\x8b\xeen:\xf6~-@'
p1281
tp1282
Rp1283
sg13
I6
sg14
I5
sg15
I2
sa(dp1284
g2
g3
(g7
S'\xb5\xd3\xeb\x90+h.@'
p1285
tp1286
Rp1287
sg13
I6
sg14
I6
sg15
I2
sa(dp1288
g2
g3
(g7
S'\x0f\x0e\x99\xcc\xcd\x1e-@'
p1289
tp1290
Rp1291
sg13
I6
sg14
I7
sg15
I2
sa(dp1292
g2
g3
(g7
S'\xbe\xc80|\xd5Q+@'
p1293
tp1294
Rp1295
sg13
I6
sg14
I8
sg15
I2
sa(dp1296
g2
g3
(g7
S'\x10\xb7\x99\xa7f\xc8)@'
p1297
tp1298
Rp1299
sg13
I6
sg14
I9
sg15
I2
sa(dp1300
g2
g3
(g7
S'\xd8x(@\x13\xd0)@'
p1301
tp1302
Rp1303
sg13
I6
sg14
I10
sg15
I2
sa(dp1304
g2
g3
(g7
S'\x92\xea\xa0\xca\xe2;)@'
p1305
tp1306
Rp1307
sg13
I6
sg14
I11
sg15
I2
sa(dp1308
g2
g3
(g7
S'\x1f\xe3:\xd1\x15a)@'
p1309
tp1310
Rp1311
sg13
I6
sg14
I12
sg15
I2
sa(dp1312
g2
g3
(g7
S'1\xb5)\xbfN\x1d*@'
p1313
tp1314
Rp1315
sg13
I6
sg14
I13
sg15
I2
sa(dp1316
g2
g3
(g7
S'ae^Q\x14j*@'
p1317
tp1318
Rp1319
sg13
I6
sg14
I14
sg15
I2
sa(dp1320
g2
g3
(g7
S'7\x11ta\xdc\xa5*@'
p1321
tp1322
Rp1323
sg13
I6
sg14
I15
sg15
I2
sa(dp1324
g2
g3
(g7
S'tp\xceNb\xea)@'
p1325
tp1326
Rp1327
sg13
I6
sg14
I16
sg15
I2
sa(dp1328
g2
g3
(g7
S'ffz2\xa6-*@'
p1329
tp1330
Rp1331
sg13
I6
sg14
I17
sg15
I2
sa(dp1332
g2
g3
(g7
S'U\x88\x0b\x14\xef\x83)@'
p1333
tp1334
Rp1335
sg13
I6
sg14
I18
sg15
I2
sa(dp1336
g2
g3
(g7
S'\xea\xb935o{(@'
p1337
tp1338
Rp1339
sg13
I6
sg14
I19
sg15
I2
sa(dp1340
g2
g3
(g7
S'\x9e\x0elf\xbb\xa3(@'
p1341
tp1342
Rp1343
sg13
I6
sg14
I20
sg15
I2
sa(dp1344
g2
g3
(g7
S'\xbf\xb8o\xe4\x8c\xf5(@'
p1345
tp1346
Rp1347
sg13
I6
sg14
I21
sg15
I2
sa(dp1348
g2
g3
(g7
S'TP\x16\xd4rq*@'
p1349
tp1350
Rp1351
sg13
I6
sg14
I22
sg15
I2
sa(dp1352
g2
g3
(g7
S'@\x85\x9e\xaa\xca!*@'
p1353
tp1354
Rp1355
sg13
I6
sg14
I23
sg15
I2
sa(dp1356
g2
g3
(g7
S'M\xb7\xf9\x8a\x8e\xaf(@'
p1357
tp1358
Rp1359
sg13
I0
sg14
I0
sg15
I3
sa(dp1360
g2
g3
(g7
S'\x91/\\cVj(@'
p1361
tp1362
Rp1363
sg13
I0
sg14
I1
sg15
I3
sa(dp1364
g2
g3
(g7
S'\xe3d\xd0\x9b\xf1\xe3(@'
p1365
tp1366
Rp1367
sg13
I0
sg14
I2
sg15
I3
sa(dp1368
g2
g3
(g7
S'G\x8agOQ\x00*@'
p1369
tp1370
Rp1371
sg13
I0
sg14
I3
sg15
I3
sa(dp1372
g2
g3
(g7
S'w\xac\x7f(\xdf\xa3-@'
p1373
tp1374
Rp1375
sg13
I0
sg14
I4
sg15
I3
sa(dp1376
g2
g3
(g7
S'\x8e\x10\x16\tO\xa41@'
p1377
tp1378
Rp1379
sg13
I0
sg14
I5
sg15
I3
sa(dp1380
g2
g3
(g7
S'b8G\x96\x89@0@'
p1381
tp1382
Rp1383
sg13
I0
sg14
I6
sg15
I3
sa(dp1384
g2
g3
(g7
S'\xf6\xe3\xc0\xc8F\xa7,@'
p1385
tp1386
Rp1387
sg13
I0
sg14
I7
sg15
I3
sa(dp1388
g2
g3
(g7
S'#E\xc8\x1cSX+@'
p1389
tp1390
Rp1391
sg13
I0
sg14
I8
sg15
I3
sa(dp1392
g2
g3
(g7
S'\x8bY?\x85<e+@'
p1393
tp1394
Rp1395
sg13
I0
sg14
I9
sg15
I3
sa(dp1396
g2
g3
(g7
S'\xfd;[ 2R*@'
p1397
tp1398
Rp1399
sg13
I0
sg14
I10
sg15
I3
sa(dp1400
g2
g3
(g7
S'\xd5?R#S\x87*@'
p1401
tp1402
Rp1403
sg13
I0
sg14
I11
sg15
I3
sa(dp1404
g2
g3
(g7
S'\xc1\xb4\xafcgt*@'
p1405
tp1406
Rp1407
sg13
I0
sg14
I12
sg15
I3
sa(dp1408
g2
g3
(g7
S'\xc2\xf1\xf7\xc7pW)@'
p1409
tp1410
Rp1411
sg13
I0
sg14
I13
sg15
I3
sa(dp1412
g2
g3
(g7
S'\x07\x03\xb9e\x1f\x14*@'
p1413
tp1414
Rp1415
sg13
I0
sg14
I14
sg15
I3
sa(dp1416
g2
g3
(g7
S'\xdbg\xd8\xf8N\xec)@'
p1417
tp1418
Rp1419
sg13
I0
sg14
I15
sg15
I3
sa(dp1420
g2
g3
(g7
S'\x17U\xb1\xcc\x8e/+@'
p1421
tp1422
Rp1423
sg13
I0
sg14
I16
sg15
I3
sa(dp1424
g2
g3
(g7
S'\xd2\xba\xf3\x19\x05?*@'
p1425
tp1426
Rp1427
sg13
I0
sg14
I17
sg15
I3
sa(dp1428
g2
g3
(g7
S'V\xdbc\xa6\xd4\xc4(@'
p1429
tp1430
Rp1431
sg13
I0
sg14
I18
sg15
I3
sa(dp1432
g2
g3
(g7
S'h\x89\xb3\xdbRH(@'
p1433
tp1434
Rp1435
sg13
I0
sg14
I19
sg15
I3
sa(dp1436
g2
g3
(g7
S"@\xe2Q\xf3\xfai'@"
p1437
tp1438
Rp1439
sg13
I0
sg14
I20
sg15
I3
sa(dp1440
g2
g3
(g7
S'\xb2*\xff\x11\x0f\t(@'
p1441
tp1442
Rp1443
sg13
I0
sg14
I21
sg15
I3
sa(dp1444
g2
g3
(g7
S'b~/:\xa9\x1f(@'
p1445
tp1446
Rp1447
sg13
I0
sg14
I22
sg15
I3
sa(dp1448
g2
g3
(g7
S'iZ \xee\xf4=)@'
p1449
tp1450
Rp1451
sg13
I0
sg14
I23
sg15
I3
sa(dp1452
g2
g3
(g7
S'k0\x08\xab\xb3\x01(@'
p1453
tp1454
Rp1455
sg13
I1
sg14
I0
sg15
I3
sa(dp1456
g2
g3
(g7
S' \xc15\xbd\xb0\x12(@'
p1457
tp1458
Rp1459
sg13
I1
sg14
I1
sg15
I3
sa(dp1460
g2
g3
(g7
S'CW\xe2Xd:)@'
p1461
tp1462
Rp1463
sg13
I1
sg14
I2
sg15
I3
sa(dp1464
g2
g3
(g7
S'\x13\xb4g\xa0Um)@'
p1465
tp1466
Rp1467
sg13
I1
sg14
I3
sg15
I3
sa(dp1468
g2
g3
(g7
S'U\x84Ma\x10M-@'
p1469
tp1470
Rp1471
sg13
I1
sg14
I4
sg15
I3
sa(dp1472
g2
g3
(g7
S'h\xf7s\xd0\xcb;1@'
p1473
tp1474
Rp1475
sg13
I1
sg14
I5
sg15
I3
sa(dp1476
g2
g3
(g7
S'i\xc9\xbe\x03\xd5V.@'
p1477
tp1478
Rp1479
sg13
I1
sg14
I6
sg15
I3
sa(dp1480
g2
g3
(g7
S'\x8ab\xd8\xd3e,,@'
p1481
tp1482
Rp1483
sg13
I1
sg14
I7
sg15
I3
sa(dp1484
g2
g3
(g7
S'#5\xe4iD\x92+@'
p1485
tp1486
Rp1487
sg13
I1
sg14
I8
sg15
I3
sa(dp1488
g2
g3
(g7
S'\xf7C\x0b\x9e\xb7\xe6*@'
p1489
tp1490
Rp1491
sg13
I1
sg14
I9
sg15
I3
sa(dp1492
g2
g3
(g7
S'{\xc1\xdebl\x96*@'
p1493
tp1494
Rp1495
sg13
I1
sg14
I10
sg15
I3
sa(dp1496
g2
g3
(g7
S'\xc2\xb9\xfd\x91\xa7\xc4*@'
p1497
tp1498
Rp1499
sg13
I1
sg14
I11
sg15
I3
sa(dp1500
g2
g3
(g7
S'h#\x89\xa5\xa7t*@'
p1501
tp1502
Rp1503
sg13
I1
sg14
I12
sg15
I3
sa(dp1504
g2
g3
(g7
S'\xa6\x8f\xd6\xd7ra*@'
p1505
tp1506
Rp1507
sg13
I1
sg14
I13
sg15
I3
sa(dp1508
g2
g3
(g7
S'\x85\xf5\xf0\r\x9d\xf8)@'
p1509
tp1510
Rp1511
sg13
I1
sg14
I14
sg15
I3
sa(dp1512
g2
g3
(g7
S'\xe6\x7f)W#D*@'
p1513
tp1514
Rp1515
sg13
I1
sg14
I15
sg15
I3
sa(dp1516
g2
g3
(g7
S'\xbbRb]\xb4\xa9+@'
p1517
tp1518
Rp1519
sg13
I1
sg14
I16
sg15
I3
sa(dp1520
g2
g3
(g7
S'l\xcb\xbeI\xd1\xa2*@'
p1521
tp1522
Rp1523
sg13
I1
sg14
I17
sg15
I3
sa(dp1524
g2
g3
(g7
S'\xaf9\xdci\xc1t)@'
p1525
tp1526
Rp1527
sg13
I1
sg14
I18
sg15
I3
sa(dp1528
g2
g3
(g7
S'\xb0\xba\x94\x8f\xb3\x95(@'
p1529
tp1530
Rp1531
sg13
I1
sg14
I19
sg15
I3
sa(dp1532
g2
g3
(g7
S'\x80]\xd3c+\x05(@'
p1533
tp1534
Rp1535
sg13
I1
sg14
I20
sg15
I3
sa(dp1536
g2
g3
(g7
S'\xe5\x93\x96Gk\xaa(@'
p1537
tp1538
Rp1539
sg13
I1
sg14
I21
sg15
I3
sa(dp1540
g2
g3
(g7
S'~w\xb9\x11"k)@'
p1541
tp1542
Rp1543
sg13
I1
sg14
I22
sg15
I3
sa(dp1544
g2
g3
(g7
S'@\x91Z\x05\x0bC)@'
p1545
tp1546
Rp1547
sg13
I1
sg14
I23
sg15
I3
sa(dp1548
g2
g3
(g7
S'\xd3n\x08\xf2Q\x9e(@'
p1549
tp1550
Rp1551
sg13
I2
sg14
I0
sg15
I3
sa(dp1552
g2
g3
(g7
S'\x80t\x89\x92\xafn(@'
p1553
tp1554
Rp1555
sg13
I2
sg14
I1
sg15
I3
sa(dp1556
g2
g3
(g7
S'\x90m\xd1#\x85\xe4(@'
p1557
tp1558
Rp1559
sg13
I2
sg14
I2
sg15
I3
sa(dp1560
g2
g3
(g7
S"\xad\x0c\x13k'f)@"
p1561
tp1562
Rp1563
sg13
I2
sg14
I3
sg15
I3
sa(dp1564
g2
g3
(g7
S'p\xf9\x15l\xd6l-@'
p1565
tp1566
Rp1567
sg13
I2
sg14
I4
sg15
I3
sa(dp1568
g2
g3
(g7
S'\x1d>\xf5V\xa5\x001@'
p1569
tp1570
Rp1571
sg13
I2
sg14
I5
sg15
I3
sa(dp1572
g2
g3
(g7
S'\x02\xe2\x00\xec\x86\n0@'
p1573
tp1574
Rp1575
sg13
I2
sg14
I6
sg15
I3
sa(dp1576
g2
g3
(g7
S'\xb9\xd4\xddhP\xff+@'
p1577
tp1578
Rp1579
sg13
I2
sg14
I7
sg15
I3
sa(dp1580
g2
g3
(g7
S'\xf8\xf0_\x85\x1c\n+@'
p1581
tp1582
Rp1583
sg13
I2
sg14
I8
sg15
I3
sa(dp1584
g2
g3
(g7
S'\x0c\x14(T\x08\x87+@'
p1585
tp1586
Rp1587
sg13
I2
sg14
I9
sg15
I3
sa(dp1588
g2
g3
(g7
S'\x1d\x9d\xf5O\xbe\x0b+@'
p1589
tp1590
Rp1591
sg13
I2
sg14
I10
sg15
I3
sa(dp1592
g2
g3
(g7
S'&\x9a\t\x8fQ\\*@'
p1593
tp1594
Rp1595
sg13
I2
sg14
I11
sg15
I3
sa(dp1596
g2
g3
(g7
S'\xe4n\xe4\xca\xca(*@'
p1597
tp1598
Rp1599
sg13
I2
sg14
I12
sg15
I3
sa(dp1600
g2
g3
(g7
S'z{K\xf0\x1dt*@'
p1601
tp1602
Rp1603
sg13
I2
sg14
I13
sg15
I3
sa(dp1604
g2
g3
(g7
S'f\xae\xadp\xf5\x19+@'
p1605
tp1606
Rp1607
sg13
I2
sg14
I14
sg15
I3
sa(dp1608
g2
g3
(g7
S'\xbc\x9e\xc4\xe0{s*@'
p1609
tp1610
Rp1611
sg13
I2
sg14
I15
sg15
I3
sa(dp1612
g2
g3
(g7
S'(W\x8e\x0c\xe3I,@'
p1613
tp1614
Rp1615
sg13
I2
sg14
I16
sg15
I3
sa(dp1616
g2
g3
(g7
S'\x03\xc5W\x19\x05=+@'
p1617
tp1618
Rp1619
sg13
I2
sg14
I17
sg15
I3
sa(dp1620
g2
g3
(g7
S'!\x150N\x11\x80)@'
p1621
tp1622
Rp1623
sg13
I2
sg14
I18
sg15
I3
sa(dp1624
g2
g3
(g7
S'\x99\xbf\xb7\xcd\x0b\x0f)@'
p1625
tp1626
Rp1627
sg13
I2
sg14
I19
sg15
I3
sa(dp1628
g2
g3
(g7
S"\x93\x06j\xae\xe2\xb6'@"
p1629
tp1630
Rp1631
sg13
I2
sg14
I20
sg15
I3
sa(dp1632
g2
g3
(g7
S't\x1b\xac\x9d1\xa0(@'
p1633
tp1634
Rp1635
sg13
I2
sg14
I21
sg15
I3
sa(dp1636
g2
g3
(g7
S'@\xb1\x94QB,)@'
p1637
tp1638
Rp1639
sg13
I2
sg14
I22
sg15
I3
sa(dp1640
g2
g3
(g7
S'\x14\xde\xd27g\xa9)@'
p1641
tp1642
Rp1643
sg13
I2
sg14
I23
sg15
I3
sa(dp1644
g2
g3
(g7
S'\xc4W:\xfc_\xfe(@'
p1645
tp1646
Rp1647
sg13
I3
sg14
I0
sg15
I3
sa(dp1648
g2
g3
(g7
S'\xff\xbd@\xda\x87\xc6(@'
p1649
tp1650
Rp1651
sg13
I3
sg14
I1
sg15
I3
sa(dp1652
g2
g3
(g7
S'X\xe0\xffT\x8dC)@'
p1653
tp1654
Rp1655
sg13
I3
sg14
I2
sg15
I3
sa(dp1656
g2
g3
(g7
S'\xacp\xd4\xb1\xc1\xdb)@'
p1657
tp1658
Rp1659
sg13
I3
sg14
I3
sg15
I3
sa(dp1660
g2
g3
(g7
S'\xa6\xe0\x07"\x0f=.@'
p1661
tp1662
Rp1663
sg13
I3
sg14
I4
sg15
I3
sa(dp1664
g2
g3
(g7
S'\x05-\xef\x92\xae*2@'
p1665
tp1666
Rp1667
sg13
I3
sg14
I5
sg15
I3
sa(dp1668
g2
g3
(g7
S'm\xbfO\r[\xb4/@'
p1669
tp1670
Rp1671
sg13
I3
sg14
I6
sg15
I3
sa(dp1672
g2
g3
(g7
S'\xf8\x00\x9e\xb9$e,@'
p1673
tp1674
Rp1675
sg13
I3
sg14
I7
sg15
I3
sa(dp1676
g2
g3
(g7
S'\xad\x94\xe0\xc2oU+@'
p1677
tp1678
Rp1679
sg13
I3
sg14
I8
sg15
I3
sa(dp1680
g2
g3
(g7
S'\x97\xc7\x0eI\xa5\x83+@'
p1681
tp1682
Rp1683
sg13
I3
sg14
I9
sg15
I3
sa(dp1684
g2
g3
(g7
S'5\xbbG_\x07\x04+@'
p1685
tp1686
Rp1687
sg13
I3
sg14
I10
sg15
I3
sa(dp1688
g2
g3
(g7
S'A\x18Yd\xf4|*@'
p1689
tp1690
Rp1691
sg13
I3
sg14
I11
sg15
I3
sa(dp1692
g2
g3
(g7
S'c9\xfa\xb6R\xa1*@'
p1693
tp1694
Rp1695
sg13
I3
sg14
I12
sg15
I3
sa(dp1696
g2
g3
(g7
S'\x9bB%\xf3\xc3;*@'
p1697
tp1698
Rp1699
sg13
I3
sg14
I13
sg15
I3
sa(dp1700
g2
g3
(g7
S'\xb8\xce3u\xac\xd7*@'
p1701
tp1702
Rp1703
sg13
I3
sg14
I14
sg15
I3
sa(dp1704
g2
g3
(g7
S'\xbd\xd9\x13\x93\x9b\xce*@'
p1705
tp1706
Rp1707
sg13
I3
sg14
I15
sg15
I3
sa(dp1708
g2
g3
(g7
S';\xc8\xc4\xe1\x86\xf3,@'
p1709
tp1710
Rp1711
sg13
I3
sg14
I16
sg15
I3
sa(dp1712
g2
g3
(g7
S'\x06\x02\x17,\xc5\x91+@'
p1713
tp1714
Rp1715
sg13
I3
sg14
I17
sg15
I3
sa(dp1716
g2
g3
(g7
S'\xec\x9e\xa2\t\x81\x8f*@'
p1717
tp1718
Rp1719
sg13
I3
sg14
I18
sg15
I3
sa(dp1720
g2
g3
(g7
S'=G\xfd\xcc\xe3\x98)@'
p1721
tp1722
Rp1723
sg13
I3
sg14
I19
sg15
I3
sa(dp1724
g2
g3
(g7
S'8\xa8\x1e\xf6/\xf4(@'
p1725
tp1726
Rp1727
sg13
I3
sg14
I20
sg15
I3
sa(dp1728
g2
g3
(g7
S'3\xb1\xd0\xc4\xf8f)@'
p1729
tp1730
Rp1731
sg13
I3
sg14
I21
sg15
I3
sa(dp1732
g2
g3
(g7
S'\x18\xe4\xfbE\xec\xa8)@'
p1733
tp1734
Rp1735
sg13
I3
sg14
I22
sg15
I3
sa(dp1736
g2
g3
(g7
S'\xa4\x80\xa9\xaer\x97)@'
p1737
tp1738
Rp1739
sg13
I3
sg14
I23
sg15
I3
sa(dp1740
g2
g3
(g7
S'\xc9\x9fAp\x7f2)@'
p1741
tp1742
Rp1743
sg13
I4
sg14
I0
sg15
I3
sa(dp1744
g2
g3
(g7
S'\x96\x0c\xe4\xa8\x91Y)@'
p1745
tp1746
Rp1747
sg13
I4
sg14
I1
sg15
I3
sa(dp1748
g2
g3
(g7
S'\x16W\xc7\x18\xa6\xdf)@'
p1749
tp1750
Rp1751
sg13
I4
sg14
I2
sg15
I3
sa(dp1752
g2
g3
(g7
S'\x8d\xef\xda\xc3T\xbb*@'
p1753
tp1754
Rp1755
sg13
I4
sg14
I3
sg15
I3
sa(dp1756
g2
g3
(g7
S'\xd2\xb3\xe6\x04\xe8\x99-@'
p1757
tp1758
Rp1759
sg13
I4
sg14
I4
sg15
I3
sa(dp1760
g2
g3
(g7
S'\r)\xbf\x1c:\xa31@'
p1761
tp1762
Rp1763
sg13
I4
sg14
I5
sg15
I3
sa(dp1764
g2
g3
(g7
S'\xecQ\xb4@rX0@'
p1765
tp1766
Rp1767
sg13
I4
sg14
I6
sg15
I3
sa(dp1768
g2
g3
(g7
S'=\x10\x80\xd5e\xe8,@'
p1769
tp1770
Rp1771
sg13
I4
sg14
I7
sg15
I3
sa(dp1772
g2
g3
(g7
S'\x9f\xd1\xa9\xd8-\x98+@'
p1773
tp1774
Rp1775
sg13
I4
sg14
I8
sg15
I3
sa(dp1776
g2
g3
(g7
S'w\xb5\x1dh\x9e\xe2+@'
p1777
tp1778
Rp1779
sg13
I4
sg14
I9
sg15
I3
sa(dp1780
g2
g3
(g7
S'X{\x96=\x98\x85*@'
p1781
tp1782
Rp1783
sg13
I4
sg14
I10
sg15
I3
sa(dp1784
g2
g3
(g7
S'#\xba\xc5\xdcG\x9a*@'
p1785
tp1786
Rp1787
sg13
I4
sg14
I11
sg15
I3
sa(dp1788
g2
g3
(g7
S'5\xa3\x123\x13\xfc*@'
p1789
tp1790
Rp1791
sg13
I4
sg14
I12
sg15
I3
sa(dp1792
g2
g3
(g7
S'2t\xd0z\xcd\x0f+@'
p1793
tp1794
Rp1795
sg13
I4
sg14
I13
sg15
I3
sa(dp1796
g2
g3
(g7
S'\xfe\x10\xc2\xbf\xcc-+@'
p1797
tp1798
Rp1799
sg13
I4
sg14
I14
sg15
I3
sa(dp1800
g2
g3
(g7
S'H\xd6\x03\x96\x7fE+@'
p1801
tp1802
Rp1803
sg13
I4
sg14
I15
sg15
I3
sa(dp1804
g2
g3
(g7
S'Rw\x10\x15\x08\xb0,@'
p1805
tp1806
Rp1807
sg13
I4
sg14
I16
sg15
I3
sa(dp1808
g2
g3
(g7
S'\xe7{TT\xfc\xdb+@'
p1809
tp1810
Rp1811
sg13
I4
sg14
I17
sg15
I3
sa(dp1812
g2
g3
(g7
S'\x19xQ\x04&\xcb*@'
p1813
tp1814
Rp1815
sg13
I4
sg14
I18
sg15
I3
sa(dp1816
g2
g3
(g7
S'\x1d\xc1\xae\x1c\xa5\xf7)@'
p1817
tp1818
Rp1819
sg13
I4
sg14
I19
sg15
I3
sa(dp1820
g2
g3
(g7
S'c\x10\x11\xb9\xab\xf2(@'
p1821
tp1822
Rp1823
sg13
I4
sg14
I20
sg15
I3
sa(dp1824
g2
g3
(g7
S'q\xac\xe5\xc7Z))@'
p1825
tp1826
Rp1827
sg13
I4
sg14
I21
sg15
I3
sa(dp1828
g2
g3
(g7
S'\xcf\xe7\xf5$X\xe4)@'
p1829
tp1830
Rp1831
sg13
I4
sg14
I22
sg15
I3
sa(dp1832
g2
g3
(g7
S'i\x85t\x17\xfe7*@'
p1833
tp1834
Rp1835
sg13
I4
sg14
I23
sg15
I3
sa(dp1836
g2
g3
(g7
S'\xc9\xda\x85V,m*@'
p1837
tp1838
Rp1839
sg13
I5
sg14
I0
sg15
I3
sa(dp1840
g2
g3
(g7
S'\xc5\xa5\x99\rn>*@'
p1841
tp1842
Rp1843
sg13
I5
sg14
I1
sg15
I3
sa(dp1844
g2
g3
(g7
S'Cu\xa3\x08\xc0d*@'
p1845
tp1846
Rp1847
sg13
I5
sg14
I2
sg15
I3
sa(dp1848
g2
g3
(g7
S'\xc9:\x9bX\xfbG+@'
p1849
tp1850
Rp1851
sg13
I5
sg14
I3
sg15
I3
sa(dp1852
g2
g3
(g7
S'\x7f\x17\xcb\x15T\xae+@'
p1853
tp1854
Rp1855
sg13
I5
sg14
I4
sg15
I3
sa(dp1856
g2
g3
(g7
S'U\xb2\xd2\xf7\xf0\xc4.@'
p1857
tp1858
Rp1859
sg13
I5
sg14
I5
sg15
I3
sa(dp1860
g2
g3
(g7
S'\xa9}\xc2\x8f\x04\xc4/@'
p1861
tp1862
Rp1863
sg13
I5
sg14
I6
sg15
I3
sa(dp1864
g2
g3
(g7
S'\xbcgS>x\x87-@'
p1865
tp1866
Rp1867
sg13
I5
sg14
I7
sg15
I3
sa(dp1868
g2
g3
(g7
S'\xe7S};\x1e\x8a+@'
p1869
tp1870
Rp1871
sg13
I5
sg14
I8
sg15
I3
sa(dp1872
g2
g3
(g7
S'\xfc\xda!\xe3hL*@'
p1873
tp1874
Rp1875
sg13
I5
sg14
I9
sg15
I3
sa(dp1876
g2
g3
(g7
S'\xa4\xe7\xf0\x1c&\x16*@'
p1877
tp1878
Rp1879
sg13
I5
sg14
I10
sg15
I3
sa(dp1880
g2
g3
(g7
S'k\x05\x8dx\xa0O*@'
p1881
tp1882
Rp1883
sg13
I5
sg14
I11
sg15
I3
sa(dp1884
g2
g3
(g7
S'\xba\x8ba\xc9#\xa0*@'
p1885
tp1886
Rp1887
sg13
I5
sg14
I12
sg15
I3
sa(dp1888
g2
g3
(g7
S'\x86:\xa1\x17\x91\x80*@'
p1889
tp1890
Rp1891
sg13
I5
sg14
I13
sg15
I3
sa(dp1892
g2
g3
(g7
S'\xdc7\x9b,\xa4]*@'
p1893
tp1894
Rp1895
sg13
I5
sg14
I14
sg15
I3
sa(dp1896
g2
g3
(g7
S'd\x9e&YQv*@'
p1897
tp1898
Rp1899
sg13
I5
sg14
I15
sg15
I3
sa(dp1900
g2
g3
(g7
S'r\x1c\xf1\xf7\x9b9*@'
p1901
tp1902
Rp1903
sg13
I5
sg14
I16
sg15
I3
sa(dp1904
g2
g3
(g7
S'5\x06\x89ly\x1e*@'
p1905
tp1906
Rp1907
sg13
I5
sg14
I17
sg15
I3
sa(dp1908
g2
g3
(g7
S'\xf4\xb6\x93\xd4\xba\xbf)@'
p1909
tp1910
Rp1911
sg13
I5
sg14
I18
sg15
I3
sa(dp1912
g2
g3
(g7
S'\x9d\x02\x97O\xf9\x95)@'
p1913
tp1914
Rp1915
sg13
I5
sg14
I19
sg15
I3
sa(dp1916
g2
g3
(g7
S'\xdb\xa7]\xad\x8e\x10*@'
p1917
tp1918
Rp1919
sg13
I5
sg14
I20
sg15
I3
sa(dp1920
g2
g3
(g7
S'\x16TTnLW*@'
p1921
tp1922
Rp1923
sg13
I5
sg14
I21
sg15
I3
sa(dp1924
g2
g3
(g7
S'!4\xa1\x19\xa4\t+@'
p1925
tp1926
Rp1927
sg13
I5
sg14
I22
sg15
I3
sa(dp1928
g2
g3
(g7
S'3\xd7\xce\xbc\xa3U+@'
p1929
tp1930
Rp1931
sg13
I5
sg14
I23
sg15
I3
sa(dp1932
g2
g3
(g7
S'\xc3T\xad\xc0\xdb\xdd+@'
p1933
tp1934
Rp1935
sg13
I6
sg14
I0
sg15
I3
sa(dp1936
g2
g3
(g7
S'\xf8\xb8-\xf5\xd04+@'
p1937
tp1938
Rp1939
sg13
I6
sg14
I1
sg15
I3
sa(dp1940
g2
g3
(g7
S'\x95q\xd1\x83\xa0\x84+@'
p1941
tp1942
Rp1943
sg13
I6
sg14
I2
sg15
I3
sa(dp1944
g2
g3
(g7
S'\xdb\xf1\xce\xdej%,@'
p1945
tp1946
Rp1947
sg13
I6
sg14
I3
sg15
I3
sa(dp1948
g2
g3
(g7
S'\xab\xe0\xaei(/-@'
p1949
tp1950
Rp1951
sg13
I6
sg14
I4
sg15
I3
sa(dp1952
g2
g3
(g7
S'\xda\xfaE\x1ff\xc4-@'
p1953
tp1954
Rp1955
sg13
I6
sg14
I5
sg15
I3
sa(dp1956
g2
g3
(g7
S'01\x93\xb9\xd1\xcb/@'
p1957
tp1958
Rp1959
sg13
I6
sg14
I6
sg15
I3
sa(dp1960
g2
g3
(g7
S'/\xb6\xef4p\xf1-@'
p1961
tp1962
Rp1963
sg13
I6
sg14
I7
sg15
I3
sa(dp1964
g2
g3
(g7
S'H\xf3<\x0f\x82\xa9+@'
p1965
tp1966
Rp1967
sg13
I6
sg14
I8
sg15
I3
sa(dp1968
g2
g3
(g7
S'\xec\x9d\xe8[\xb3\xd3)@'
p1969
tp1970
Rp1971
sg13
I6
sg14
I9
sg15
I3
sa(dp1972
g2
g3
(g7
S'\xddY$\x8b\x86\x1e*@'
p1973
tp1974
Rp1975
sg13
I6
sg14
I10
sg15
I3
sa(dp1976
g2
g3
(g7
S'\xcf\xbe\xe9\x9a4{)@'
p1977
tp1978
Rp1979
sg13
I6
sg14
I11
sg15
I3
sa(dp1980
g2
g3
(g7
S'\xb4\x8b\xd8!\xeb\xda)@'
p1981
tp1982
Rp1983
sg13
I6
sg14
I12
sg15
I3
sa(dp1984
g2
g3
(g7
S'\x08\xeb@\x08\x95q*@'
p1985
tp1986
Rp1987
sg13
I6
sg14
I13
sg15
I3
sa(dp1988
g2
g3
(g7
S'\xf8\x03\xbe"\xa6\xf5*@'
p1989
tp1990
Rp1991
sg13
I6
sg14
I14
sg15
I3
sa(dp1992
g2
g3
(g7
S'J\xae0]\xbd\xb2*@'
p1993
tp1994
Rp1995
sg13
I6
sg14
I15
sg15
I3
sa(dp1996
g2
g3
(g7
S'\x00P\x82?,\xe6*@'
p1997
tp1998
Rp1999
sg13
I6
sg14
I16
sg15
I3
sa(dp2000
g2
g3
(g7
S'\x8d\xe4\xe4\x9e\x01\x8f*@'
p2001
tp2002
Rp2003
sg13
I6
sg14
I17
sg15
I3
sa(dp2004
g2
g3
(g7
S'\xd3\xda*\xcfII)@'
p2005
tp2006
Rp2007
sg13
I6
sg14
I18
sg15
I3
sa(dp2008
g2
g3
(g7
S'o\xcaS\x82<\n)@'
p2009
tp2010
Rp2011
sg13
I6
sg14
I19
sg15
I3
sa(dp2012
g2
g3
(g7
S'\x8b\xce\xfdf\x8fV)@'
p2013
tp2014
Rp2015
sg13
I6
sg14
I20
sg15
I3
sa(dp2016
g2
g3
(g7
S'>S^DZ )@'
p2017
tp2018
Rp2019
sg13
I6
sg14
I21
sg15
I3
sa(dp2020
g2
g3
(g7
S'|\xb8K\x1dz@)@'
p2021
tp2022
Rp2023
sg13
I6
sg14
I22
sg15
I3
sa(dp2024
g2
g3
(g7
S'\xaa\xe1\x0cy\xef\xbc)@'
p2025
tp2026
Rp2027
sg13
I6
sg14
I23
sg15
I3
sa(dp2028
g2
g3
(g7
S'\x8e\xbe\x10\xc9\x18/)@'
p2029
tp2030
Rp2031
sg13
I0
sg14
I0
sg15
I4
sa(dp2032
g2
g3
(g7
S'\xa9\x17\xa0]\xb3\x12)@'
p2033
tp2034
Rp2035
sg13
I0
sg14
I1
sg15
I4
sa(dp2036
g2
g3
(g7
S'5_K\xc3\xfc#)@'
p2037
tp2038
Rp2039
sg13
I0
sg14
I2
sg15
I4
sa(dp2040
g2
g3
(g7
S'\x05@\xa7\rtZ*@'
p2041
tp2042
Rp2043
sg13
I0
sg14
I3
sg15
I4
sa(dp2044
g2
g3
(g7
S'\xdf\xdb=\x1fy\x7f/@'
p2045
tp2046
Rp2047
sg13
I0
sg14
I4
sg15
I4
sa(dp2048
g2
g3
(g7
S'Bg/U\xf7\x043@'
p2049
tp2050
Rp2051
sg13
I0
sg14
I5
sg15
I4
sa(dp2052
g2
g3
(g7
S'n*\x07\x86\x85C0@'
p2053
tp2054
Rp2055
sg13
I0
sg14
I6
sg15
I4
sa(dp2056
g2
g3
(g7
S'\xe6\xffO\x00\xeb\xa9-@'
p2057
tp2058
Rp2059
sg13
I0
sg14
I7
sg15
I4
sa(dp2060
g2
g3
(g7
S'!\x8f\xeb\x004j,@'
p2061
tp2062
Rp2063
sg13
I0
sg14
I8
sg15
I4
sa(dp2064
g2
g3
(g7
S'>\xce\xee\x95\x8fj,@'
p2065
tp2066
Rp2067
sg13
I0
sg14
I9
sg15
I4
sa(dp2068
g2
g3
(g7
S'\xa1\xaa\x89\x1d`&+@'
p2069
tp2070
Rp2071
sg13
I0
sg14
I10
sg15
I4
sa(dp2072
g2
g3
(g7
S'\xa9*\xc0\x01\xf2w*@'
p2073
tp2074
Rp2075
sg13
I0
sg14
I11
sg15
I4
sa(dp2076
g2
g3
(g7
S"g'\x86\x13P\x95*@"
p2077
tp2078
Rp2079
sg13
I0
sg14
I12
sg15
I4
sa(dp2080
g2
g3
(g7
S'\t\xb0\x1b!3C*@'
p2081
tp2082
Rp2083
sg13
I0
sg14
I13
sg15
I4
sa(dp2084
g2
g3
(g7
S' \xb9\x05i(\x1b*@'
p2085
tp2086
Rp2087
sg13
I0
sg14
I14
sg15
I4
sa(dp2088
g2
g3
(g7
S'\xbe\x014\xe7\xab\x98*@'
p2089
tp2090
Rp2091
sg13
I0
sg14
I15
sg15
I4
sa(dp2092
g2
g3
(g7
S'l\x06\x01\xae\xcf\xad,@'
p2093
tp2094
Rp2095
sg13
I0
sg14
I16
sg15
I4
sa(dp2096
g2
g3
(g7
S'\x90\x19\xd1\x91\x83\x14+@'
p2097
tp2098
Rp2099
sg13
I0
sg14
I17
sg15
I4
sa(dp2100
g2
g3
(g7
S'\x16\x87\xaac\xc1\x9b)@'
p2101
tp2102
Rp2103
sg13
I0
sg14
I18
sg15
I4
sa(dp2104
g2
g3
(g7
S'\x95\xae\x8d\xbc\xa7\xcf(@'
p2105
tp2106
Rp2107
sg13
I0
sg14
I19
sg15
I4
sa(dp2108
g2
g3
(g7
S'\x94\x153\x06\x946(@'
p2109
tp2110
Rp2111
sg13
I0
sg14
I20
sg15
I4
sa(dp2112
g2
g3
(g7
S'\xd7\xfdMj2*)@'
p2113
tp2114
Rp2115
sg13
I0
sg14
I21
sg15
I4
sa(dp2116
g2
g3
(g7
S'\xcfn\xa7\x8c)**@'
p2117
tp2118
Rp2119
sg13
I0
sg14
I22
sg15
I4
sa(dp2120
g2
g3
(g7
S'\x96\xdd\x95\xd3J\x17*@'
p2121
tp2122
Rp2123
sg13
I0
sg14
I23
sg15
I4
sa(dp2124
g2
g3
(g7
S'\xd9\xf8N9\x937)@'
p2125
tp2126
Rp2127
sg13
I1
sg14
I0
sg15
I4
sa(dp2128
g2
g3
(g7
S'V\x144R6Z(@'
p2129
tp2130
Rp2131
sg13
I1
sg14
I1
sg15
I4
sa(dp2132
g2
g3
(g7
S',\x1c\x1b\x8a\x02P(@'
p2133
tp2134
Rp2135
sg13
I1
sg14
I2
sg15
I4
sa(dp2136
g2
g3
(g7
S'\x8e\x9e=\x87HC(@'
p2137
tp2138
Rp2139
sg13
I1
sg14
I3
sg15
I4
sa(dp2140
g2
g3
(g7
S'6\xf1\xa8\x9b^\xe1,@'
p2141
tp2142
Rp2143
sg13
I1
sg14
I4
sg15
I4
sa(dp2144
g2
g3
(g7
S'\xd4>\x93\x91Y\xe50@'
p2145
tp2146
Rp2147
sg13
I1
sg14
I5
sg15
I4
sa(dp2148
g2
g3
(g7
S'\xcdD\x02\xea\x0cd.@'
p2149
tp2150
Rp2151
sg13
I1
sg14
I6
sg15
I4
sa(dp2152
g2
g3
(g7
S'&\x194~\x7fk,@'
p2153
tp2154
Rp2155
sg13
I1
sg14
I7
sg15
I4
sa(dp2156
g2
g3
(g7
S'\xa5\x98\xd8\x10\x0e\x88,@'
p2157
tp2158
Rp2159
sg13
I1
sg14
I8
sg15
I4
sa(dp2160
g2
g3
(g7
S'\xbd\xef\xfc\t\xf1>,@'
p2161
tp2162
Rp2163
sg13
I1
sg14
I9
sg15
I4
sa(dp2164
g2
g3
(g7
S'\x93}\xf75\x02\xa6*@'
p2165
tp2166
Rp2167
sg13
I1
sg14
I10
sg15
I4
sa(dp2168
g2
g3
(g7
S'\xba\x11\xf78\x07\x86*@'
p2169
tp2170
Rp2171
sg13
I1
sg14
I11
sg15
I4
sa(dp2172
g2
g3
(g7
S'\xda=]+\xbb\x0c*@'
p2173
tp2174
Rp2175
sg13
I1
sg14
I12
sg15
I4
sa(dp2176
g2
g3
(g7
S' \xef\x93\x80\xf8k*@'
p2177
tp2178
Rp2179
sg13
I1
sg14
I13
sg15
I4
sa(dp2180
g2
g3
(g7
S'\x81enJp\x98*@'
p2181
tp2182
Rp2183
sg13
I1
sg14
I14
sg15
I4
sa(dp2184
g2
g3
(g7
S'\tm\x1d\xa1=T*@'
p2185
tp2186
Rp2187
sg13
I1
sg14
I15
sg15
I4
sa(dp2188
g2
g3
(g7
S'\xfc(QK\xe5\xd1+@'
p2189
tp2190
Rp2191
sg13
I1
sg14
I16
sg15
I4
sa(dp2192
g2
g3
(g7
S'%yL\xf4\xbbl+@'
p2193
tp2194
Rp2195
sg13
I1
sg14
I17
sg15
I4
sa(dp2196
g2
g3
(g7
S'\xe1\xc7\xe3\x94RQ*@'
p2197
tp2198
Rp2199
sg13
I1
sg14
I18
sg15
I4
sa(dp2200
g2
g3
(g7
S'?S\x97h\xe6\x04)@'
p2201
tp2202
Rp2203
sg13
I1
sg14
I19
sg15
I4
sa(dp2204
g2
g3
(g7
S'c\xe4\xb0\xf1O;(@'
p2205
tp2206
Rp2207
sg13
I1
sg14
I20
sg15
I4
sa(dp2208
g2
g3
(g7
S'N\xd8V\x83d\xc0(@'
p2209
tp2210
Rp2211
sg13
I1
sg14
I21
sg15
I4
sa(dp2212
g2
g3
(g7
S'7^T\x89\x8b\xf1)@'
p2213
tp2214
Rp2215
sg13
I1
sg14
I22
sg15
I4
sa(dp2216
g2
g3
(g7
S'\x1e\x11]\xee\x9a\x9f)@'
p2217
tp2218
Rp2219
sg13
I1
sg14
I23
sg15
I4
sa(dp2220
g2
g3
(g7
S'\xe3\xf4b$+\x90(@'
p2221
tp2222
Rp2223
sg13
I2
sg14
I0
sg15
I4
sa(dp2224
g2
g3
(g7
S'(\x8dW\xd7-L(@'
p2225
tp2226
Rp2227
sg13
I2
sg14
I1
sg15
I4
sa(dp2228
g2
g3
(g7
S'\x8eJ.\xe3Ie(@'
p2229
tp2230
Rp2231
sg13
I2
sg14
I2
sg15
I4
sa(dp2232
g2
g3
(g7
S'\xf1\x8a\x15\x04\x1ft)@'
p2233
tp2234
Rp2235
sg13
I2
sg14
I3
sg15
I4
sa(dp2236
g2
g3
(g7
S"\xed\xf5Qf'\x01-@"
p2237
tp2238
Rp2239
sg13
I2
sg14
I4
sg15
I4
sa(dp2240
g2
g3
(g7
S'@\xcat\xb7\xf0\x0e1@'
p2241
tp2242
Rp2243
sg13
I2
sg14
I5
sg15
I4
sa(dp2244
g2
g3
(g7
S'j\x93\x01\xd1B\xf4-@'
p2245
tp2246
Rp2247
sg13
I2
sg14
I6
sg15
I4
sa(dp2248
g2
g3
(g7
S'\xdb[\xa2\xb2\xd1\xfd+@'
p2249
tp2250
Rp2251
sg13
I2
sg14
I7
sg15
I4
sa(dp2252
g2
g3
(g7
S'\xce\xeb\x1e\xfd\x10\x9f+@'
p2253
tp2254
Rp2255
sg13
I2
sg14
I8
sg15
I4
sa(dp2256
g2
g3
(g7
S'\xdb\xd80\xbc\t\x90+@'
p2257
tp2258
Rp2259
sg13
I2
sg14
I9
sg15
I4
sa(dp2260
g2
g3
(g7
S'(\xa2\x99R\x03\x13+@'
p2261
tp2262
Rp2263
sg13
I2
sg14
I10
sg15
I4
sa(dp2264
g2
g3
(g7
S'F\xfe\xe5\xe87H+@'
p2265
tp2266
Rp2267
sg13
I2
sg14
I11
sg15
I4
sa(dp2268
g2
g3
(g7
S'\x1bn\xe2\xbdx\xbd*@'
p2269
tp2270
Rp2271
sg13
I2
sg14
I12
sg15
I4
sa(dp2272
g2
g3
(g7
S'\x977+>|Q+@'
p2273
tp2274
Rp2275
sg13
I2
sg14
I13
sg15
I4
sa(dp2276
g2
g3
(g7
S'\xa8)\xf8\xe2\xeb\x93*@'
p2277
tp2278
Rp2279
sg13
I2
sg14
I14
sg15
I4
sa(dp2280
g2
g3
(g7
S'U\xc4<F\xeb\xda*@'
p2281
tp2282
Rp2283
sg13
I2
sg14
I15
sg15
I4
sa(dp2284
g2
g3
(g7
S'^\xb1\xc8\x91|U,@'
p2285
tp2286
Rp2287
sg13
I2
sg14
I16
sg15
I4
sa(dp2288
g2
g3
(g7
S'\xd5\x1a%rBm+@'
p2289
tp2290
Rp2291
sg13
I2
sg14
I17
sg15
I4
sa(dp2292
g2
g3
(g7
S'\nK\xd7\xa0\x82>*@'
p2293
tp2294
Rp2295
sg13
I2
sg14
I18
sg15
I4
sa(dp2296
g2
g3
(g7
S'\x1e\x1c}"\x0e\xf6(@'
p2297
tp2298
Rp2299
sg13
I2
sg14
I19
sg15
I4
sa(dp2300
g2
g3
(g7
S'\xffV\xac\x04\x11\x98(@'
p2301
tp2302
Rp2303
sg13
I2
sg14
I20
sg15
I4
sa(dp2304
g2
g3
(g7
S'\xd9F\xe3Y\xd4n)@'
p2305
tp2306
Rp2307
sg13
I2
sg14
I21
sg15
I4
sa(dp2308
g2
g3
(g7
S't\xd1=\x13>\xca*@'
p2309
tp2310
Rp2311
sg13
I2
sg14
I22
sg15
I4
sa(dp2312
g2
g3
(g7
S'\x84\x9a\xfc\x1e\x19.*@'
p2313
tp2314
Rp2315
sg13
I2
sg14
I23
sg15
I4
sa(dp2316
g2
g3
(g7
S'.\xf5\x8c\xa8\x17\xb1)@'
p2317
tp2318
Rp2319
sg13
I3
sg14
I0
sg15
I4
sa(dp2320
g2
g3
(g7
S'\xd6E\x16\xb5\x8b\x01)@'
p2321
tp2322
Rp2323
sg13
I3
sg14
I1
sg15
I4
sa(dp2324
g2
g3
(g7
S'\n\x8d\xf7\xc4\x0c\xed(@'
p2325
tp2326
Rp2327
sg13
I3
sg14
I2
sg15
I4
sa(dp2328
g2
g3
(g7
S'\xc3\x10\xd81\xb2\xcf)@'
p2329
tp2330
Rp2331
sg13
I3
sg14
I3
sg15
I4
sa(dp2332
g2
g3
(g7
S'\x8bmU\xad\xc8\xf1-@'
p2333
tp2334
Rp2335
sg13
I3
sg14
I4
sg15
I4
sa(dp2336
g2
g3
(g7
S'\xd1TS\x17\xd3\x0f2@'
p2337
tp2338
Rp2339
sg13
I3
sg14
I5
sg15
I4
sa(dp2340
g2
g3
(g7
S'Fg\x85\xf8\tU/@'
p2341
tp2342
Rp2343
sg13
I3
sg14
I6
sg15
I4
sa(dp2344
g2
g3
(g7
S'\xf4\x96\x9dK\xa1\x15-@'
p2345
tp2346
Rp2347
sg13
I3
sg14
I7
sg15
I4
sa(dp2348
g2
g3
(g7
S'\xc8JE\xad\xca<,@'
p2349
tp2350
Rp2351
sg13
I3
sg14
I8
sg15
I4
sa(dp2352
g2
g3
(g7
S'3:\xa8xb\x06,@'
p2353
tp2354
Rp2355
sg13
I3
sg14
I9
sg15
I4
sa(dp2356
g2
g3
(g7
S'L\xd8Qb\xf2\xee*@'
p2357
tp2358
Rp2359
sg13
I3
sg14
I10
sg15
I4
sa(dp2360
g2
g3
(g7
S' \xcbfQ\x97\x04+@'
p2361
tp2362
Rp2363
sg13
I3
sg14
I11
sg15
I4
sa(dp2364
g2
g3
(g7
S'\x80\xd7L\xd2{\xb8*@'
p2365
tp2366
Rp2367
sg13
I3
sg14
I12
sg15
I4
sa(dp2368
g2
g3
(g7
S'\xd0m\xac\xa3\xc6\xaa*@'
p2369
tp2370
Rp2371
sg13
I3
sg14
I13
sg15
I4
sa(dp2372
g2
g3
(g7
S'\xcb}\xa7\xd5t\xf6*@'
p2373
tp2374
Rp2375
sg13
I3
sg14
I14
sg15
I4
sa(dp2376
g2
g3
(g7
S't\x9e\x07V\x10u+@'
p2377
tp2378
Rp2379
sg13
I3
sg14
I15
sg15
I4
sa(dp2380
g2
g3
(g7
S'\xe1\xdcr\x00]\xb3,@'
p2381
tp2382
Rp2383
sg13
I3
sg14
I16
sg15
I4
sa(dp2384
g2
g3
(g7
S'\xe3PoE\x042,@'
p2385
tp2386
Rp2387
sg13
I3
sg14
I17
sg15
I4
sa(dp2388
g2
g3
(g7
S'\x1e\xc4\xb6\xf7\xfc\x96*@'
p2389
tp2390
Rp2391
sg13
I3
sg14
I18
sg15
I4
sa(dp2392
g2
g3
(g7
S"uO\xe2x'\x8b)@"
p2393
tp2394
Rp2395
sg13
I3
sg14
I19
sg15
I4
sa(dp2396
g2
g3
(g7
S'\x0c\x9b\x81\xec\x9a\xd1(@'
p2397
tp2398
Rp2399
sg13
I3
sg14
I20
sg15
I4
sa(dp2400
g2
g3
(g7
S'\xe2#!\xde\xc5\x93)@'
p2401
tp2402
Rp2403
sg13
I3
sg14
I21
sg15
I4
sa(dp2404
g2
g3
(g7
S'+\xc7\x92_,\t*@'
p2405
tp2406
Rp2407
sg13
I3
sg14
I22
sg15
I4
sa(dp2408
g2
g3
(g7
S':F\xa1\xe3\xbb.*@'
p2409
tp2410
Rp2411
sg13
I3
sg14
I23
sg15
I4
sa(dp2412
g2
g3
(g7
S'\xc6\x9b\xcb{AO)@'
p2413
tp2414
Rp2415
sg13
I4
sg14
I0
sg15
I4
sa(dp2416
g2
g3
(g7
S'\xcf\xab\x05@\x91\x0e*@'
p2417
tp2418
Rp2419
sg13
I4
sg14
I1
sg15
I4
sa(dp2420
g2
g3
(g7
S'L(\x84\x11\x01\xed)@'
p2421
tp2422
Rp2423
sg13
I4
sg14
I2
sg15
I4
sa(dp2424
g2
g3
(g7
S'\xc4L\x86\x8c\xca[*@'
p2425
tp2426
Rp2427
sg13
I4
sg14
I3
sg15
I4
sa(dp2428
g2
g3
(g7
S'\xad\xe0[\t\rM.@'
p2429
tp2430
Rp2431
sg13
I4
sg14
I4
sg15
I4
sa(dp2432
g2
g3
(g7
S'F\xc9\xf4\xb5\x9c\xf61@'
p2433
tp2434
Rp2435
sg13
I4
sg14
I5
sg15
I4
sa(dp2436
g2
g3
(g7
S'\xc3\x99\xed\x98@?0@'
p2437
tp2438
Rp2439
sg13
I4
sg14
I6
sg15
I4
sa(dp2440
g2
g3
(g7
S'\xf2\xe3\\\\S\xea,@'
p2441
tp2442
Rp2443
sg13
I4
sg14
I7
sg15
I4
sa(dp2444
g2
g3
(g7
S'\xd8\xdd\xc6"\\\xa1+@'
p2445
tp2446
Rp2447
sg13
I4
sg14
I8
sg15
I4
sa(dp2448
g2
g3
(g7
S'\xa5OKp\xb3\xed+@'
p2449
tp2450
Rp2451
sg13
I4
sg14
I9
sg15
I4
sa(dp2452
g2
g3
(g7
S'\xfd\xea#fY,+@'
p2453
tp2454
Rp2455
sg13
I4
sg14
I10
sg15
I4
sa(dp2456
g2
g3
(g7
S'\x19\x13\xc5i\x83#+@'
p2457
tp2458
Rp2459
sg13
I4
sg14
I11
sg15
I4
sa(dp2460
g2
g3
(g7
S'\xaeL\xcc)\xbe\xcb*@'
p2461
tp2462
Rp2463
sg13
I4
sg14
I12
sg15
I4
sa(dp2464
g2
g3
(g7
S'?\xb5\xd3\xa0A\xda*@'
p2465
tp2466
Rp2467
sg13
I4
sg14
I13
sg15
I4
sa(dp2468
g2
g3
(g7
S'_C\x8c_\xcfH+@'
p2469
tp2470
Rp2471
sg13
I4
sg14
I14
sg15
I4
sa(dp2472
g2
g3
(g7
S'[)\xf8\xbd\x16\x7f+@'
p2473
tp2474
Rp2475
sg13
I4
sg14
I15
sg15
I4
sa(dp2476
g2
g3
(g7
S'\xdf\xe6\xb3W\x1em-@'
p2477
tp2478
Rp2479
sg13
I4
sg14
I16
sg15
I4
sa(dp2480
g2
g3
(g7
S'iT\xe5r#\x05-@'
p2481
tp2482
Rp2483
sg13
I4
sg14
I17
sg15
I4
sa(dp2484
g2
g3
(g7
S'\r\x16\xab\x90\xc7\x02+@'
p2485
tp2486
Rp2487
sg13
I4
sg14
I18
sg15
I4
sa(dp2488
g2
g3
(g7
S'rR\x96.,\x1b*@'
p2489
tp2490
Rp2491
sg13
I4
sg14
I19
sg15
I4
sa(dp2492
g2
g3
(g7
S's\xd9\xe2\x06vh)@'
p2493
tp2494
Rp2495
sg13
I4
sg14
I20
sg15
I4
sa(dp2496
g2
g3
(g7
S'\xba\xd7\x00\xac\xab\xb0)@'
p2497
tp2498
Rp2499
sg13
I4
sg14
I21
sg15
I4
sa(dp2500
g2
g3
(g7
S'r\x15wUx\x93*@'
p2501
tp2502
Rp2503
sg13
I4
sg14
I22
sg15
I4
sa(dp2504
g2
g3
(g7
S'\x10Ju\x020\x00+@'
p2505
tp2506
Rp2507
sg13
I4
sg14
I23
sg15
I4
sa(dp2508
g2
g3
(g7
S'f\xd90\xe32\xc4*@'
p2509
tp2510
Rp2511
sg13
I5
sg14
I0
sg15
I4
sa(dp2512
g2
g3
(g7
S'\xe8\xf4\xe5K\x1ed*@'
p2513
tp2514
Rp2515
sg13
I5
sg14
I1
sg15
I4
sa(dp2516
g2
g3
(g7
S'\xb0\x9c8\xc6\xcd\x84*@'
p2517
tp2518
Rp2519
sg13
I5
sg14
I2
sg15
I4
sa(dp2520
g2
g3
(g7
S'\xce\xefp9\xdeK+@'
p2521
tp2522
Rp2523
sg13
I5
sg14
I3
sg15
I4
sa(dp2524
g2
g3
(g7
S'\xcb\x1e?\xe4\x08\xc5+@'
p2525
tp2526
Rp2527
sg13
I5
sg14
I4
sg15
I4
sa(dp2528
g2
g3
(g7
S'\x8eX\xecY\xec\xcc.@'
p2529
tp2530
Rp2531
sg13
I5
sg14
I5
sg15
I4
sa(dp2532
g2
g3
(g7
S'\x0b\x88\xaej\x85_0@'
p2533
tp2534
Rp2535
sg13
I5
sg14
I6
sg15
I4
sa(dp2536
g2
g3
(g7
S'\xb9"P\x8cDi-@'
p2537
tp2538
Rp2539
sg13
I5
sg14
I7
sg15
I4
sa(dp2540
g2
g3
(g7
S'EiT\x94\xd0D+@'
p2541
tp2542
Rp2543
sg13
I5
sg14
I8
sg15
I4
sa(dp2544
g2
g3
(g7
S'7\xaa\xc0\xe0A\xa6*@'
p2545
tp2546
Rp2547
sg13
I5
sg14
I9
sg15
I4
sa(dp2548
g2
g3
(g7
S'6\x8d\x99R\xfd\xc5)@'
p2549
tp2550
Rp2551
sg13
I5
sg14
I10
sg15
I4
sa(dp2552
g2
g3
(g7
S'\x04n\xf2\xdb5F*@'
p2553
tp2554
Rp2555
sg13
I5
sg14
I11
sg15
I4
sa(dp2556
g2
g3
(g7
S'\xba\xd9\x95\xf0\xef>*@'
p2557
tp2558
Rp2559
sg13
I5
sg14
I12
sg15
I4
sa(dp2560
g2
g3
(g7
S'P?\xcf\xf9\r\x9c*@'
p2561
tp2562
Rp2563
sg13
I5
sg14
I13
sg15
I4
sa(dp2564
g2
g3
(g7
S'\xab\xffx|\xc6\x80*@'
p2565
tp2566
Rp2567
sg13
I5
sg14
I14
sg15
I4
sa(dp2568
g2
g3
(g7
S'\xb9\x12\xb4\xfdd\xb3*@'
p2569
tp2570
Rp2571
sg13
I5
sg14
I15
sg15
I4
sa(dp2572
g2
g3
(g7
S'\x8d\xeb\xa0\xf2\xbf\x1c+@'
p2573
tp2574
Rp2575
sg13
I5
sg14
I16
sg15
I4
sa(dp2576
g2
g3
(g7
S'\n\x12\xaf\xf6 \xc6*@'
p2577
tp2578
Rp2579
sg13
I5
sg14
I17
sg15
I4
sa(dp2580
g2
g3
(g7
S'\xa7\xfak\xc8\xd4\xf8*@'
p2581
tp2582
Rp2583
sg13
I5
sg14
I18
sg15
I4
sa(dp2584
g2
g3
(g7
S'\x18\x96Z\x91\xe67*@'
p2585
tp2586
Rp2587
sg13
I5
sg14
I19
sg15
I4
sa(dp2588
g2
g3
(g7
S'\x8f\xbd\xfe\xe8\x96\xbd*@'
p2589
tp2590
Rp2591
sg13
I5
sg14
I20
sg15
I4
sa(dp2592
g2
g3
(g7
S'\x9bDP\xa9h\xcd*@'
p2593
tp2594
Rp2595
sg13
I5
sg14
I21
sg15
I4
sa(dp2596
g2
g3
(g7
S'\x18G\x16\x86D\x89+@'
p2597
tp2598
Rp2599
sg13
I5
sg14
I22
sg15
I4
sa(dp2600
g2
g3
(g7
S'\x8fc\x8fV\xb9",@'
p2601
tp2602
Rp2603
sg13
I5
sg14
I23
sg15
I4
sa(dp2604
g2
g3
(g7
S'&\xac<\x08\xb4\x1e,@'
p2605
tp2606
Rp2607
sg13
I6
sg14
I0
sg15
I4
sa(dp2608
g2
g3
(g7
S'\x9e\xc9\x13J*\x0e+@'
p2609
tp2610
Rp2611
sg13
I6
sg14
I1
sg15
I4
sa(dp2612
g2
g3
(g7
S'\x7f=\xd4\xfaf\xab+@'
p2613
tp2614
Rp2615
sg13
I6
sg14
I2
sg15
I4
sa(dp2616
g2
g3
(g7
S'\x81\xa3\xefG~\x1b,@'
p2617
tp2618
Rp2619
sg13
I6
sg14
I3
sg15
I4
sa(dp2620
g2
g3
(g7
S'}\x11\x8e\xb0*`,@'
p2621
tp2622
Rp2623
sg13
I6
sg14
I4
sg15
I4
sa(dp2624
g2
g3
(g7
S'\xb4Z\xbd\x10a\xdf-@'
p2625
tp2626
Rp2627
sg13
I6
sg14
I5
sg15
I4
sa(dp2628
g2
g3
(g7
S'U\x8cE\x1d\x80J/@'
p2629
tp2630
Rp2631
sg13
I6
sg14
I6
sg15
I4
sa(dp2632
g2
g3
(g7
S't\x0b \xa9\x002.@'
p2633
tp2634
Rp2635
sg13
I6
sg14
I7
sg15
I4
sa(dp2636
g2
g3
(g7
S'D\xa7J=\x9f\xfb+@'
p2637
tp2638
Rp2639
sg13
I6
sg14
I8
sg15
I4
sa(dp2640
g2
g3
(g7
S'\xff33w\x80\xdf*@'
p2641
tp2642
Rp2643
sg13
I6
sg14
I9
sg15
I4
sa(dp2644
g2
g3
(g7
S'\xed\x9d;\xd9\x86;*@'
p2645
tp2646
Rp2647
sg13
I6
sg14
I10
sg15
I4
sa(dp2648
g2
g3
(g7
S'\xad<xN!\x05*@'
p2649
tp2650
Rp2651
sg13
I6
sg14
I11
sg15
I4
sa(dp2652
g2
g3
(g7
S'\xb4\x88\x92d2w*@'
p2653
tp2654
Rp2655
sg13
I6
sg14
I12
sg15
I4
sa(dp2656
g2
g3
(g7
S'a\x19e\xfch\x92+@'
p2657
tp2658
Rp2659
sg13
I6
sg14
I13
sg15
I4
sa(dp2660
g2
g3
(g7
S'5g#d\x1fh+@'
p2661
tp2662
Rp2663
sg13
I6
sg14
I14
sg15
I4
sa(dp2664
g2
g3
(g7
S'\xb3.<\xfa\xae\xe8+@'
p2665
tp2666
Rp2667
sg13
I6
sg14
I15
sg15
I4
sa(dp2668
g2
g3
(g7
S'\xc6\xad\x86\xb5\xad\xf7+@'
p2669
tp2670
Rp2671
sg13
I6
sg14
I16
sg15
I4
sa(dp2672
g2
g3
(g7
S'\xe7\xc0\x9e\xfd \xed*@'
p2673
tp2674
Rp2675
sg13
I6
sg14
I17
sg15
I4
sa(dp2676
g2
g3
(g7
S'\x85\x1a\xae\xaa\xda:*@'
p2677
tp2678
Rp2679
sg13
I6
sg14
I18
sg15
I4
sa(dp2680
g2
g3
(g7
S'\x81R5\x88\x04E)@'
p2681
tp2682
Rp2683
sg13
I6
sg14
I19
sg15
I4
sa(dp2684
g2
g3
(g7
S'\x00\xfc\xabV\xd1A*@'
p2685
tp2686
Rp2687
sg13
I6
sg14
I20
sg15
I4
sa(dp2688
g2
g3
(g7
S'\x18\xb7\xe1l$\xec)@'
p2689
tp2690
Rp2691
sg13
I6
sg14
I21
sg15
I4
sa(dp2692
g2
g3
(g7
S'\xd2x\x18\x1bz\xc6)@'
p2693
tp2694
Rp2695
sg13
I6
sg14
I22
sg15
I4
sa(dp2696
g2
g3
(g7
S'\x96sf2\x1a\x95*@'
p2697
tp2698
Rp2699
sg13
I6
sg14
I23
sg15
I4
sa(dp2700
g2
g3
(g7
S's\x97v\x82\xb7Z*@'
p2701
tp2702
Rp2703
sg13
I0
sg14
I0
sg15
I5
sa(dp2704
g2
g3
(g7
S'\x13\x95Wut\xa4(@'
p2705
tp2706
Rp2707
sg13
I0
sg14
I1
sg15
I5
sa(dp2708
g2
g3
(g7
S'\x83\xd2\\CDb)@'
p2709
tp2710
Rp2711
sg13
I0
sg14
I2
sg15
I5
sa(dp2712
g2
g3
(g7
S'\x0cZ\x9c\xd7\x9a\x9c*@'
p2713
tp2714
Rp2715
sg13
I0
sg14
I3
sg15
I5
sa(dp2716
g2
g3
(g7
S'\x10:\xa7i}P.@'
p2717
tp2718
Rp2719
sg13
I0
sg14
I4
sg15
I5
sa(dp2720
g2
g3
(g7
S'\xf4\t\x1fT \x112@'
p2721
tp2722
Rp2723
sg13
I0
sg14
I5
sg15
I5
sa(dp2724
g2
g3
(g7
S'QG|0\xaeL0@'
p2725
tp2726
Rp2727
sg13
I0
sg14
I6
sg15
I5
sa(dp2728
g2
g3
(g7
S'jw\xad\x7f\x9c\x05-@'
p2729
tp2730
Rp2731
sg13
I0
sg14
I7
sg15
I5
sa(dp2732
g2
g3
(g7
S'#<\xe0"\xd1_,@'
p2733
tp2734
Rp2735
sg13
I0
sg14
I8
sg15
I5
sa(dp2736
g2
g3
(g7
S'\x8d\xa3\xe3\xa8\xd7\xd8+@'
p2737
tp2738
Rp2739
sg13
I0
sg14
I9
sg15
I5
sa(dp2740
g2
g3
(g7
S'\xf6o[\xc8\xd7\xc6+@'
p2741
tp2742
Rp2743
sg13
I0
sg14
I10
sg15
I5
sa(dp2744
g2
g3
(g7
S'q|\xf8l\xbc\x8a*@'
p2745
tp2746
Rp2747
sg13
I0
sg14
I11
sg15
I5
sa(dp2748
g2
g3
(g7
S'\x02A/\r\xa6\xd6*@'
p2749
tp2750
Rp2751
sg13
I0
sg14
I12
sg15
I5
sa(dp2752
g2
g3
(g7
S'\xf5\xea>\xbb\x80\xc8*@'
p2753
tp2754
Rp2755
sg13
I0
sg14
I13
sg15
I5
sa(dp2756
g2
g3
(g7
S'\r\x15\xf7\x88YY+@'
p2757
tp2758
Rp2759
sg13
I0
sg14
I14
sg15
I5
sa(dp2760
g2
g3
(g7
S'\xdd\xe1\xdc\xba\xab\x9c+@'
p2761
tp2762
Rp2763
sg13
I0
sg14
I15
sg15
I5
sa(dp2764
g2
g3
(g7
S'no\x012\xa5\x8e,@'
p2765
tp2766
Rp2767
sg13
I0
sg14
I16
sg15
I5
sa(dp2768
g2
g3
(g7
S'\xc8\xa5F\x84kn+@'
p2769
tp2770
Rp2771
sg13
I0
sg14
I17
sg15
I5
sa(dp2772
g2
g3
(g7
S'\x06\x99\x97$\n\xff)@'
p2773
tp2774
Rp2775
sg13
I0
sg14
I18
sg15
I5
sa(dp2776
g2
g3
(g7
S'0).\xb4l,)@'
p2777
tp2778
Rp2779
sg13
I0
sg14
I19
sg15
I5
sa(dp2780
g2
g3
(g7
S"FD\x81'\xb2\xa3(@"
p2781
tp2782
Rp2783
sg13
I0
sg14
I20
sg15
I5
sa(dp2784
g2
g3
(g7
S'\xa0nK\xf5\xee\x88)@'
p2785
tp2786
Rp2787
sg13
I0
sg14
I21
sg15
I5
sa(dp2788
g2
g3
(g7
S'\x15|\xc7\xde\xd3\xbf)@'
p2789
tp2790
Rp2791
sg13
I0
sg14
I22
sg15
I5
sa(dp2792
g2
g3
(g7
S'\xb1V\xba\xd3\xb0v)@'
p2793
tp2794
Rp2795
sg13
I0
sg14
I23
sg15
I5
sa(dp2796
g2
g3
(g7
S'\t&/2\xd2V(@'
p2797
tp2798
Rp2799
sg13
I1
sg14
I0
sg15
I5
sa(dp2800
g2
g3
(g7
S'\xfb\xca\x82XF\x08(@'
p2801
tp2802
Rp2803
sg13
I1
sg14
I1
sg15
I5
sa(dp2804
g2
g3
(g7
S"\x81\x91\xef\x88\xa3a'@"
p2805
tp2806
Rp2807
sg13
I1
sg14
I2
sg15
I5
sa(dp2808
g2
g3
(g7
S'7,\n\x0e*\xf5)@'
p2809
tp2810
Rp2811
sg13
I1
sg14
I3
sg15
I5
sa(dp2812
g2
g3
(g7
S'\xd2\x81\xd060b0@'
p2813
tp2814
Rp2815
sg13
I1
sg14
I4
sg15
I5
sa(dp2816
g2
g3
(g7
S'\x8b7\xe1<\xdc\\2@'
p2817
tp2818
Rp2819
sg13
I1
sg14
I5
sg15
I5
sa(dp2820
g2
g3
(g7
S'H\xdf\xd0}Y\xcf.@'
p2821
tp2822
Rp2823
sg13
I1
sg14
I6
sg15
I5
sa(dp2824
g2
g3
(g7
S'\xd3\xc3\xe7|\xac\xa2,@'
p2825
tp2826
Rp2827
sg13
I1
sg14
I7
sg15
I5
sa(dp2828
g2
g3
(g7
S'c}\x96a \x10,@'
p2829
tp2830
Rp2831
sg13
I1
sg14
I8
sg15
I5
sa(dp2832
g2
g3
(g7
S'\x1cD\xb9\xf5S\x05,@'
p2833
tp2834
Rp2835
sg13
I1
sg14
I9
sg15
I5
sa(dp2836
g2
g3
(g7
S'\xa7\xb8\x17\\\x8e=,@'
p2837
tp2838
Rp2839
sg13
I1
sg14
I10
sg15
I5
sa(dp2840
g2
g3
(g7
S'8\xffMy.\x01+@'
p2841
tp2842
Rp2843
sg13
I1
sg14
I11
sg15
I5
sa(dp2844
g2
g3
(g7
S'\xea\xf8\x1d\xc9Z!+@'
p2845
tp2846
Rp2847
sg13
I1
sg14
I12
sg15
I5
sa(dp2848
g2
g3
(g7
S';Sq _\xb2*@'
p2849
tp2850
Rp2851
sg13
I1
sg14
I13
sg15
I5
sa(dp2852
g2
g3
(g7
S'0\x1b\x113\xb6\xe1*@'
p2853
tp2854
Rp2855
sg13
I1
sg14
I14
sg15
I5
sa(dp2856
g2
g3
(g7
S'\xe2\xd2\xa6\xae\xc1q+@'
p2857
tp2858
Rp2859
sg13
I1
sg14
I15
sg15
I5
sa(dp2860
g2
g3
(g7
S'\x14\xf4\r\xe3\xfc\xc5,@'
p2861
tp2862
Rp2863
sg13
I1
sg14
I16
sg15
I5
sa(dp2864
g2
g3
(g7
S'2M\x141\xa8\xa8+@'
p2865
tp2866
Rp2867
sg13
I1
sg14
I17
sg15
I5
sa(dp2868
g2
g3
(g7
S'\xa6(Amo\x9a*@'
p2869
tp2870
Rp2871
sg13
I1
sg14
I18
sg15
I5
sa(dp2872
g2
g3
(g7
S'8.\xfc\xa5\xe0>)@'
p2873
tp2874
Rp2875
sg13
I1
sg14
I19
sg15
I5
sa(dp2876
g2
g3
(g7
S'*\xc7\x7f\x96\x98/)@'
p2877
tp2878
Rp2879
sg13
I1
sg14
I20
sg15
I5
sa(dp2880
g2
g3
(g7
S'\xebR^\x0f*\x95*@'
p2881
tp2882
Rp2883
sg13
I1
sg14
I21
sg15
I5
sa(dp2884
g2
g3
(g7
S'\xfa\x9f^L\x1d6+@'
p2885
tp2886
Rp2887
sg13
I1
sg14
I22
sg15
I5
sa(dp2888
g2
g3
(g7
S'r\xbf\x1d\x7f\x94\xb1*@'
p2889
tp2890
Rp2891
sg13
I1
sg14
I23
sg15
I5
sa(dp2892
g2
g3
(g7
S'\xa2~w{\x12A)@'
p2893
tp2894
Rp2895
sg13
I2
sg14
I0
sg15
I5
sa(dp2896
g2
g3
(g7
S'\xb3\x11\xb6K\xef\r)@'
p2897
tp2898
Rp2899
sg13
I2
sg14
I1
sg15
I5
sa(dp2900
g2
g3
(g7
S'I\xa2\xc82\x8a4)@'
p2901
tp2902
Rp2903
sg13
I2
sg14
I2
sg15
I5
sa(dp2904
g2
g3
(g7
S'\xad\xe6\xc7\x9b6\x97)@'
p2905
tp2906
Rp2907
sg13
I2
sg14
I3
sg15
I5
sa(dp2908
g2
g3
(g7
S'q?\x14\xb17\xbe.@'
p2909
tp2910
Rp2911
sg13
I2
sg14
I4
sg15
I5
sa(dp2912
g2
g3
(g7
S'\r%R\xff*\xbb1@'
p2913
tp2914
Rp2915
sg13
I2
sg14
I5
sg15
I5
sa(dp2916
g2
g3
(g7
S'\xcd5*\xf9\xb6\xdd/@'
p2917
tp2918
Rp2919
sg13
I2
sg14
I6
sg15
I5
sa(dp2920
g2
g3
(g7
S'\xab\x8bp\xe2\xb0\x8e,@'
p2921
tp2922
Rp2923
sg13
I2
sg14
I7
sg15
I5
sa(dp2924
g2
g3
(g7
S'\xc1\xf2\x7f\x96\x90\xf1+@'
p2925
tp2926
Rp2927
sg13
I2
sg14
I8
sg15
I5
sa(dp2928
g2
g3
(g7
S'\xf0\xf8\x92\xbe\xd8N,@'
p2929
tp2930
Rp2931
sg13
I2
sg14
I9
sg15
I5
sa(dp2932
g2
g3
(g7
S'|{\xa5\x977:+@'
p2933
tp2934
Rp2935
sg13
I2
sg14
I10
sg15
I5
sa(dp2936
g2
g3
(g7
S'\xb0\xc2\xcb\x8a\xa4\x9c+@'
p2937
tp2938
Rp2939
sg13
I2
sg14
I11
sg15
I5
sa(dp2940
g2
g3
(g7
S'\x02\xfc\xf7\x03\xc8}+@'
p2941
tp2942
Rp2943
sg13
I2
sg14
I12
sg15
I5
sa(dp2944
g2
g3
(g7
S'\xae\xbd\xea\x1b\xfc\xb4+@'
p2945
tp2946
Rp2947
sg13
I2
sg14
I13
sg15
I5
sa(dp2948
g2
g3
(g7
S'\xba]I\x8b\x18K,@'
p2949
tp2950
Rp2951
sg13
I2
sg14
I14
sg15
I5
sa(dp2952
g2
g3
(g7
S'\x00K\xac8\xa8j,@'
p2953
tp2954
Rp2955
sg13
I2
sg14
I15
sg15
I5
sa(dp2956
g2
g3
(g7
S'\x92E\x17\xb4\x11\xaf-@'
p2957
tp2958
Rp2959
sg13
I2
sg14
I16
sg15
I5
sa(dp2960
g2
g3
(g7
S'\x97^\x9f\x8b\xc8\x81,@'
p2961
tp2962
Rp2963
sg13
I2
sg14
I17
sg15
I5
sa(dp2964
g2
g3
(g7
S'z\x83\x94/\x98\xbd*@'
p2965
tp2966
Rp2967
sg13
I2
sg14
I18
sg15
I5
sa(dp2968
g2
g3
(g7
S'\xd7\x18\x13n\xab\xa6)@'
p2969
tp2970
Rp2971
sg13
I2
sg14
I19
sg15
I5
sa(dp2972
g2
g3
(g7
S'I\xe7]@\xc0\xdc(@'
p2973
tp2974
Rp2975
sg13
I2
sg14
I20
sg15
I5
sa(dp2976
g2
g3
(g7
S'\x14\xd8\xa7\xd7\xcf\xc3)@'
p2977
tp2978
Rp2979
sg13
I2
sg14
I21
sg15
I5
sa(dp2980
g2
g3
(g7
S'\x92G\x9e8\x1do+@'
p2981
tp2982
Rp2983
sg13
I2
sg14
I22
sg15
I5
sa(dp2984
g2
g3
(g7
S'\xaa~\xd6\xaa\x10\xc3*@'
p2985
tp2986
Rp2987
sg13
I2
sg14
I23
sg15
I5
sa(dp2988
g2
g3
(g7
S'\xbe\xbba\xbdN\x89)@'
p2989
tp2990
Rp2991
sg13
I3
sg14
I0
sg15
I5
sa(dp2992
g2
g3
(g7
S'\x1c-\x7f\x9b\x11\xdf(@'
p2993
tp2994
Rp2995
sg13
I3
sg14
I1
sg15
I5
sa(dp2996
g2
g3
(g7
S'9\xbeI\xb8\xaa\xd6(@'
p2997
tp2998
Rp2999
sg13
I3
sg14
I2
sg15
I5
sa(dp3000
g2
g3
(g7
S'\xee\xc7W2\xec4*@'
p3001
tp3002
Rp3003
sg13
I3
sg14
I3
sg15
I5
sa(dp3004
g2
g3
(g7
S'\xa7,D\xd1\x13\xfe/@'
p3005
tp3006
Rp3007
sg13
I3
sg14
I4
sg15
I5
sa(dp3008
g2
g3
(g7
S'r\xcf\x0f+\xda\xf31@'
p3009
tp3010
Rp3011
sg13
I3
sg14
I5
sg15
I5
sa(dp3012
g2
g3
(g7
S'B\x05\xbb\xe0I\xb90@'
p3013
tp3014
Rp3015
sg13
I3
sg14
I6
sg15
I5
sa(dp3016
g2
g3
(g7
S'\xaai\xd6\xedJ\x14-@'
p3017
tp3018
Rp3019
sg13
I3
sg14
I7
sg15
I5
sa(dp3020
g2
g3
(g7
S'C\x06\x93\x1b\xd9~,@'
p3021
tp3022
Rp3023
sg13
I3
sg14
I8
sg15
I5
sa(dp3024
g2
g3
(g7
S'\xf9z\xaat\xbe\xb0,@'
p3025
tp3026
Rp3027
sg13
I3
sg14
I9
sg15
I5
sa(dp3028
g2
g3
(g7
S'Z|\xb6C\xf4\x08,@'
p3029
tp3030
Rp3031
sg13
I3
sg14
I10
sg15
I5
sa(dp3032
g2
g3
(g7
S'\xcd\xd7 \x02.^+@'
p3033
tp3034
Rp3035
sg13
I3
sg14
I11
sg15
I5
sa(dp3036
g2
g3
(g7
S']\x92\x1a\xfcB\xc0+@'
p3037
tp3038
Rp3039
sg13
I3
sg14
I12
sg15
I5
sa(dp3040
g2
g3
(g7
S'\xa9\x17\x93c\x19\xbc+@'
p3041
tp3042
Rp3043
sg13
I3
sg14
I13
sg15
I5
sa(dp3044
g2
g3
(g7
S'L\xbeC\x92\xa5(,@'
p3045
tp3046
Rp3047
sg13
I3
sg14
I14
sg15
I5
sa(dp3048
g2
g3
(g7
S'7/\x19\xea.\xc3,@'
p3049
tp3050
Rp3051
sg13
I3
sg14
I15
sg15
I5
sa(dp3052
g2
g3
(g7
S'\xfa\xf1=\x9d\xca\x1c.@'
p3053
tp3054
Rp3055
sg13
I3
sg14
I16
sg15
I5
sa(dp3056
g2
g3
(g7
S'\xd5 \n\xe3\xccr-@'
p3057
tp3058
Rp3059
sg13
I3
sg14
I17
sg15
I5
sa(dp3060
g2
g3
(g7
S'\x15\xdaL\x98{\xc8+@'
p3061
tp3062
Rp3063
sg13
I3
sg14
I18
sg15
I5
sa(dp3064
g2
g3
(g7
S'*S\xd8]4d*@'
p3065
tp3066
Rp3067
sg13
I3
sg14
I19
sg15
I5
sa(dp3068
g2
g3
(g7
S'\x12t\xbb\xa0\xaa\xe2)@'
p3069
tp3070
Rp3071
sg13
I3
sg14
I20
sg15
I5
sa(dp3072
g2
g3
(g7
S'\x1d\xf5\x130\x84\x0b*@'
p3073
tp3074
Rp3075
sg13
I3
sg14
I21
sg15
I5
sa(dp3076
g2
g3
(g7
S'\x04\xf4?.\xff\x1f+@'
p3077
tp3078
Rp3079
sg13
I3
sg14
I22
sg15
I5
sa(dp3080
g2
g3
(g7
S'J\x9a\xa4\x07\x84\xf6*@'
p3081
tp3082
Rp3083
sg13
I3
sg14
I23
sg15
I5
sa(dp3084
g2
g3
(g7
S'\tG\x9e-\x87\xc3)@'
p3085
tp3086
Rp3087
sg13
I4
sg14
I0
sg15
I5
sa(dp3088
g2
g3
(g7
S'\x99\xb9\x89]~I)@'
p3089
tp3090
Rp3091
sg13
I4
sg14
I1
sg15
I5
sa(dp3092
g2
g3
(g7
S's\x00\x84o\xc1\xb9)@'
p3093
tp3094
Rp3095
sg13
I4
sg14
I2
sg15
I5
sa(dp3096
g2
g3
(g7
S'\xb5\x85]\xb9F\xb4*@'
p3097
tp3098
Rp3099
sg13
I4
sg14
I3
sg15
I5
sa(dp3100
g2
g3
(g7
S'\x8a\xa2x\x8d\xb1\x8d/@'
p3101
tp3102
Rp3103
sg13
I4
sg14
I4
sg15
I5
sa(dp3104
g2
g3
(g7
S'\xd3\xe8\x8eX?\x0f2@'
p3105
tp3106
Rp3107
sg13
I4
sg14
I5
sg15
I5
sa(dp3108
g2
g3
(g7
S'A\x85\x04O\xbeE0@'
p3109
tp3110
Rp3111
sg13
I4
sg14
I6
sg15
I5
sa(dp3112
g2
g3
(g7
S'\x0c\xcf\x18\x8f\x19%-@'
p3113
tp3114
Rp3115
sg13
I4
sg14
I7
sg15
I5
sa(dp3116
g2
g3
(g7
S'\xed\x06x\xddK\x8f,@'
p3117
tp3118
Rp3119
sg13
I4
sg14
I8
sg15
I5
sa(dp3120
g2
g3
(g7
S'\x97\xbf\x80\xd3f\xca,@'
p3121
tp3122
Rp3123
sg13
I4
sg14
I9
sg15
I5
sa(dp3124
g2
g3
(g7
S'\x8d\xff\x10\xa2\x9f\x97+@'
p3125
tp3126
Rp3127
sg13
I4
sg14
I10
sg15
I5
sa(dp3128
g2
g3
(g7
S'\xa2B\xb0\xe7q\xd8+@'
p3129
tp3130
Rp3131
sg13
I4
sg14
I11
sg15
I5
sa(dp3132
g2
g3
(g7
S'%F\x88\xdc\x12\x8c+@'
p3133
tp3134
Rp3135
sg13
I4
sg14
I12
sg15
I5
sa(dp3136
g2
g3
(g7
S'\xb9\xa3\x18\x95\xc2\x84,@'
p3137
tp3138
Rp3139
sg13
I4
sg14
I13
sg15
I5
sa(dp3140
g2
g3
(g7
S'\xa2\x05Zs\x9d~,@'
p3141
tp3142
Rp3143
sg13
I4
sg14
I14
sg15
I5
sa(dp3144
g2
g3
(g7
S'=\xa0\xa6\xb2\x8d\x12-@'
p3145
tp3146
Rp3147
sg13
I4
sg14
I15
sg15
I5
sa(dp3148
g2
g3
(g7
S'\xef+\xc9F6\r.@'
p3149
tp3150
Rp3151
sg13
I4
sg14
I16
sg15
I5
sa(dp3152
g2
g3
(g7
S'\x8c \xa2\xb2\x7f\xb4,@'
p3153
tp3154
Rp3155
sg13
I4
sg14
I17
sg15
I5
sa(dp3156
g2
g3
(g7
S's\xf2\x88?W\x9b+@'
p3157
tp3158
Rp3159
sg13
I4
sg14
I18
sg15
I5
sa(dp3160
g2
g3
(g7
S'cJ\xadi\xed *@'
p3161
tp3162
Rp3163
sg13
I4
sg14
I19
sg15
I5
sa(dp3164
g2
g3
(g7
S'7A7\xbeN\xa4)@'
p3165
tp3166
Rp3167
sg13
I4
sg14
I20
sg15
I5
sa(dp3168
g2
g3
(g7
S'o\x08v\xdc\x1f\x92*@'
p3169
tp3170
Rp3171
sg13
I4
sg14
I21
sg15
I5
sa(dp3172
g2
g3
(g7
S'\x98\xdan\x88C\x90+@'
p3173
tp3174
Rp3175
sg13
I4
sg14
I22
sg15
I5
sa(dp3176
g2
g3
(g7
S'\xea\xc1\xab@\xa1\xdb+@'
p3177
tp3178
Rp3179
sg13
I4
sg14
I23
sg15
I5
sa(dp3180
g2
g3
(g7
S'\x9e\xf9\xfe\xc8\xa1\x89+@'
p3181
tp3182
Rp3183
sg13
I5
sg14
I0
sg15
I5
sa(dp3184
g2
g3
(g7
S'\x1a\x99\xab\xcc\x85\xf9*@'
p3185
tp3186
Rp3187
sg13
I5
sg14
I1
sg15
I5
sa(dp3188
g2
g3
(g7
S'\xd8\x1f\xef\xc8\x03\x19+@'
p3189
tp3190
Rp3191
sg13
I5
sg14
I2
sg15
I5
sa(dp3192
g2
g3
(g7
S'"nS2R\xf2+@'
p3193
tp3194
Rp3195
sg13
I5
sg14
I3
sg15
I5
sa(dp3196
g2
g3
(g7
S'\x8d\xc2X\xf2\xdb\x94-@'
p3197
tp3198
Rp3199
sg13
I5
sg14
I4
sg15
I5
sa(dp3200
g2
g3
(g7
S'\x0b\xc9\xff\x19H\xac/@'
p3201
tp3202
Rp3203
sg13
I5
sg14
I5
sg15
I5
sa(dp3204
g2
g3
(g7
S'J\x7f\xe6p\xe1w/@'
p3205
tp3206
Rp3207
sg13
I5
sg14
I6
sg15
I5
sa(dp3208
g2
g3
(g7
S'5\xf02\x85\xf1\x99-@'
p3209
tp3210
Rp3211
sg13
I5
sg14
I7
sg15
I5
sa(dp3212
g2
g3
(g7
S'-\xbf+\xe8\xdf\xe8,@'
p3213
tp3214
Rp3215
sg13
I5
sg14
I8
sg15
I5
sa(dp3216
g2
g3
(g7
S'?\x8e\x85%\x80\xf3+@'
p3217
tp3218
Rp3219
sg13
I5
sg14
I9
sg15
I5
sa(dp3220
g2
g3
(g7
S'\xff\xba+]S\xd0*@'
p3221
tp3222
Rp3223
sg13
I5
sg14
I10
sg15
I5
sa(dp3224
g2
g3
(g7
S'l\xc7\xb9\x94z\xa2+@'
p3225
tp3226
Rp3227
sg13
I5
sg14
I11
sg15
I5
sa(dp3228
g2
g3
(g7
S'\xa7\x8a\xc9\x8e\x07\xd7*@'
p3229
tp3230
Rp3231
sg13
I5
sg14
I12
sg15
I5
sa(dp3232
g2
g3
(g7
S'}\xfe\xbc\xa8\xb7\xdf+@'
p3233
tp3234
Rp3235
sg13
I5
sg14
I13
sg15
I5
sa(dp3236
g2
g3
(g7
S'\x973\\\x03\x81x+@'
p3237
tp3238
Rp3239
sg13
I5
sg14
I14
sg15
I5
sa(dp3240
g2
g3
(g7
S'\xc7\xdf\xcf_\xf9c+@'
p3241
tp3242
Rp3243
sg13
I5
sg14
I15
sg15
I5
sa(dp3244
g2
g3
(g7
S'(\xa8\x90\tyd+@'
p3245
tp3246
Rp3247
sg13
I5
sg14
I16
sg15
I5
sa(dp3248
g2
g3
(g7
S'y\x03\r1-2+@'
p3249
tp3250
Rp3251
sg13
I5
sg14
I17
sg15
I5
sa(dp3252
g2
g3
(g7
S'\x94h\x0f\xd4g\xa4*@'
p3253
tp3254
Rp3255
sg13
I5
sg14
I18
sg15
I5
sa(dp3256
g2
g3
(g7
S'\xa3\xe2\xc2\x119t*@'
p3257
tp3258
Rp3259
sg13
I5
sg14
I19
sg15
I5
sa(dp3260
g2
g3
(g7
S'\xda\xc5\xc6\x19\x1b\x82+@'
p3261
tp3262
Rp3263
sg13
I5
sg14
I20
sg15
I5
sa(dp3264
g2
g3
(g7
S'\xc6\xf0\x93[\xf6\xc6+@'
p3265
tp3266
Rp3267
sg13
I5
sg14
I21
sg15
I5
sa(dp3268
g2
g3
(g7
S'\xd2\xf3\xd8 \xe9L,@'
p3269
tp3270
Rp3271
sg13
I5
sg14
I22
sg15
I5
sa(dp3272
g2
g3
(g7
S'>\xa3\x92\xd9\x1f\xac,@'
p3273
tp3274
Rp3275
sg13
I5
sg14
I23
sg15
I5
sa(dp3276
g2
g3
(g7
S'\xc5\xf9\x81\x85\xa9\xac,@'
p3277
tp3278
Rp3279
sg13
I6
sg14
I0
sg15
I5
sa(dp3280
g2
g3
(g7
S'2\x1a\xf4\xd8V\x02,@'
p3281
tp3282
Rp3283
sg13
I6
sg14
I1
sg15
I5
sa(dp3284
g2
g3
(g7
S'\x81\xdf\xc8r\xa8\xb6+@'
p3285
tp3286
Rp3287
sg13
I6
sg14
I2
sg15
I5
sa(dp3288
g2
g3
(g7
S'y\x1e0\xd5"\xce,@'
p3289
tp3290
Rp3291
sg13
I6
sg14
I3
sg15
I5
sa(dp3292
g2
g3
(g7
S'\xf1\xc9\\\xd8\xc4\xb1,@'
p3293
tp3294
Rp3295
sg13
I6
sg14
I4
sg15
I5
sa(dp3296
g2
g3
(g7
S'\x03Z\x1c\xcbw\xb0-@'
p3297
tp3298
Rp3299
sg13
I6
sg14
I5
sg15
I5
sa(dp3300
g2
g3
(g7
S'\x1d\xc7_\xffRs/@'
p3301
tp3302
Rp3303
sg13
I6
sg14
I6
sg15
I5
sa(dp3304
g2
g3
(g7
S'HE\xbcm\xde`-@'
p3305
tp3306
Rp3307
sg13
I6
sg14
I7
sg15
I5
sa(dp3308
g2
g3
(g7
S'xR\x8fI\xf2[,@'
p3309
tp3310
Rp3311
sg13
I6
sg14
I8
sg15
I5
sa(dp3312
g2
g3
(g7
S'j\xfe\x05J\xa1\x8f+@'
p3313
tp3314
Rp3315
sg13
I6
sg14
I9
sg15
I5
sa(dp3316
g2
g3
(g7
S'\x11&\x8a#\x06w*@'
p3317
tp3318
Rp3319
sg13
I6
sg14
I10
sg15
I5
sa(dp3320
g2
g3
(g7
S'\x112\xbf\xe0\xfe{*@'
p3321
tp3322
Rp3323
sg13
I6
sg14
I11
sg15
I5
sa(dp3324
g2
g3
(g7
S')\xff\x1bu*\xa6*@'
p3325
tp3326
Rp3327
sg13
I6
sg14
I12
sg15
I5
sa(dp3328
g2
g3
(g7
S'/$|\xb3c\xb7+@'
p3329
tp3330
Rp3331
sg13
I6
sg14
I13
sg15
I5
sa(dp3332
g2
g3
(g7
S'?\xc7\xbay\x1a}+@'
p3333
tp3334
Rp3335
sg13
I6
sg14
I14
sg15
I5
sa(dp3336
g2
g3
(g7
S'\x80&b\xfe|\x15,@'
p3337
tp3338
Rp3339
sg13
I6
sg14
I15
sg15
I5
sa(dp3340
g2
g3
(g7
S'\x87j\xaf\x97\xe2\x93+@'
p3341
tp3342
Rp3343
sg13
I6
sg14
I16
sg15
I5
sa(dp3344
g2
g3
(g7
S'4\x82\x9d\xbej\xec*@'
p3345
tp3346
Rp3347
sg13
I6
sg14
I17
sg15
I5
sa(dp3348
g2
g3
(g7
S'.a\xb7\x8d3s*@'
p3349
tp3350
Rp3351
sg13
I6
sg14
I18
sg15
I5
sa(dp3352
g2
g3
(g7
S'\xe7\xf5\x1dd\x13w)@'
p3353
tp3354
Rp3355
sg13
I6
sg14
I19
sg15
I5
sa(dp3356
g2
g3
(g7
S'\x83@\x1eX\x07\xa4*@'
p3357
tp3358
Rp3359
sg13
I6
sg14
I20
sg15
I5
sa(dp3360
g2
g3
(g7
S'\xbd\xd6\xe0\xd3\xdc]*@'
p3361
tp3362
Rp3363
sg13
I6
sg14
I21
sg15
I5
sa(dp3364
g2
g3
(g7
S'<3T\xbd\xe9/+@'
p3365
tp3366
Rp3367
sg13
I6
sg14
I22
sg15
I5
sa(dp3368
g2
g3
(g7
S'\xc2\xbf\xff\x18\xdbJ+@'
p3369
tp3370
Rp3371
sg13
I6
sg14
I23
sg15
I5
sa(dp3372
g2
g3
(g7
S'\x0f\\\x06\x8f*\xac*@'
p3373
tp3374
Rp3375
sg13
I0
sg14
I0
sg15
I6
sa(dp3376
g2
g3
(g7
S'\xdd\xd0\xf6\xf6\xaa\x07)@'
p3377
tp3378
Rp3379
sg13
I0
sg14
I1
sg15
I6
sa(dp3380
g2
g3
(g7
S'Vy\r\xd6\x0ea)@'
p3381
tp3382
Rp3383
sg13
I0
sg14
I2
sg15
I6
sa(dp3384
g2
g3
(g7
S'y\x17\x0b\xd9\xe1\xad+@'
p3385
tp3386
Rp3387
sg13
I0
sg14
I3
sg15
I6
sa(dp3388
g2
g3
(g7
S'h\xce\x8a\xe5j\x10/@'
p3389
tp3390
Rp3391
sg13
I0
sg14
I4
sg15
I6
sa(dp3392
g2
g3
(g7
S'\xa9\xe6X+c\x842@'
p3393
tp3394
Rp3395
sg13
I0
sg14
I5
sg15
I6
sa(dp3396
g2
g3
(g7
S'\x97S\x01\xeal\x011@'
p3397
tp3398
Rp3399
sg13
I0
sg14
I6
sg15
I6
sa(dp3400
g2
g3
(g7
S'\xa0\x07e\xa6\xe6\x95-@'
p3401
tp3402
Rp3403
sg13
I0
sg14
I7
sg15
I6
sa(dp3404
g2
g3
(g7
S'!y\x10U\xda?,@'
p3405
tp3406
Rp3407
sg13
I0
sg14
I8
sg15
I6
sa(dp3408
g2
g3
(g7
S'&\xc8A7\xb0\x98+@'
p3409
tp3410
Rp3411
sg13
I0
sg14
I9
sg15
I6
sa(dp3412
g2
g3
(g7
S'\xc4\xcd\x99e[\xdf*@'
p3413
tp3414
Rp3415
sg13
I0
sg14
I10
sg15
I6
sa(dp3416
g2
g3
(g7
S'\x0e5\x95\x03\xd4n+@'
p3417
tp3418
Rp3419
sg13
I0
sg14
I11
sg15
I6
sa(dp3420
g2
g3
(g7
S'C\xa6(\xea{\x03+@'
p3421
tp3422
Rp3423
sg13
I0
sg14
I12
sg15
I6
sa(dp3424
g2
g3
(g7
S'\xc1=\xc4r\x8c\x8b*@'
p3425
tp3426
Rp3427
sg13
I0
sg14
I13
sg15
I6
sa(dp3428
g2
g3
(g7
S'\x8a\xc0\x7f&\xea\xe1*@'
p3429
tp3430
Rp3431
sg13
I0
sg14
I14
sg15
I6
sa(dp3432
g2
g3
(g7
S'\x11\x10\x97U\x01\xf2*@'
p3433
tp3434
Rp3435
sg13
I0
sg14
I15
sg15
I6
sa(dp3436
g2
g3
(g7
S'\xd1\x9bF\xcc\xa1\xec,@'
p3437
tp3438
Rp3439
sg13
I0
sg14
I16
sg15
I6
sa(dp3440
g2
g3
(g7
S'\x8f\xd2\xa7\xdd\xc2\xf2+@'
p3441
tp3442
Rp3443
sg13
I0
sg14
I17
sg15
I6
sa(dp3444
g2
g3
(g7
S'3\xb2\xd2\x8a+j*@'
p3445
tp3446
Rp3447
sg13
I0
sg14
I18
sg15
I6
sa(dp3448
g2
g3
(g7
S'\xceM8\xd7\xcd\x1f)@'
p3449
tp3450
Rp3451
sg13
I0
sg14
I19
sg15
I6
sa(dp3452
g2
g3
(g7
S'\x11}\x02o\x90i(@'
p3453
tp3454
Rp3455
sg13
I0
sg14
I20
sg15
I6
sa(dp3456
g2
g3
(g7
S')\xa7\x91*<\x0e)@'
p3457
tp3458
Rp3459
sg13
I0
sg14
I21
sg15
I6
sa(dp3460
g2
g3
(g7
S'\x12\xdf\x8c).h)@'
p3461
tp3462
Rp3463
sg13
I0
sg14
I22
sg15
I6
sa(dp3464
g2
g3
(g7
S'\xb1dT\xec\x18\x98(@'
p3465
tp3466
Rp3467
sg13
I0
sg14
I23
sg15
I6
sa(dp3468
g2
g3
(g7
S'&\x05\x90%jJ(@'
p3469
tp3470
Rp3471
sg13
I1
sg14
I0
sg15
I6
sa(dp3472
g2
g3
(g7
S"c\xce\x99\x89`\xcc'@"
p3473
tp3474
Rp3475
sg13
I1
sg14
I1
sg15
I6
sa(dp3476
g2
g3
(g7
S'\x11rc\xe7lA)@'
p3477
tp3478
Rp3479
sg13
I1
sg14
I2
sg15
I6
sa(dp3480
g2
g3
(g7
S'\xceM\xdb\xab\x85\xb2*@'
p3481
tp3482
Rp3483
sg13
I1
sg14
I3
sg15
I6
sa(dp3484
g2
g3
(g7
S'\x81\xa1\xca3YQ.@'
p3485
tp3486
Rp3487
sg13
I1
sg14
I4
sg15
I6
sa(dp3488
g2
g3
(g7
S'\xd9\xdfNj\x16\x0f1@'
p3489
tp3490
Rp3491
sg13
I1
sg14
I5
sg15
I6
sa(dp3492
g2
g3
(g7
S'\xce\xae\x92\xf7\x18 /@'
p3493
tp3494
Rp3495
sg13
I1
sg14
I6
sg15
I6
sa(dp3496
g2
g3
(g7
S'\x95\xe5B\xda?v,@'
p3497
tp3498
Rp3499
sg13
I1
sg14
I7
sg15
I6
sa(dp3500
g2
g3
(g7
S'\xfd\x97\xbd\x02lW+@'
p3501
tp3502
Rp3503
sg13
I1
sg14
I8
sg15
I6
sa(dp3504
g2
g3
(g7
S'\x93\xac\xf8\x8f\xbd\x00,@'
p3505
tp3506
Rp3507
sg13
I1
sg14
I9
sg15
I6
sa(dp3508
g2
g3
(g7
S'6\xb9\x92\xcb\x068+@'
p3509
tp3510
Rp3511
sg13
I1
sg14
I10
sg15
I6
sa(dp3512
g2
g3
(g7
S'\x90\xc2k\xd1\xf4\xd6*@'
p3513
tp3514
Rp3515
sg13
I1
sg14
I11
sg15
I6
sa(dp3516
g2
g3
(g7
S'\xdd\x98\x01\xceKT+@'
p3517
tp3518
Rp3519
sg13
I1
sg14
I12
sg15
I6
sa(dp3520
g2
g3
(g7
S'\xad\xa1T\n\x89 +@'
p3521
tp3522
Rp3523
sg13
I1
sg14
I13
sg15
I6
sa(dp3524
g2
g3
(g7
S'r\x0c\x9d\xbd\xb8\xe3*@'
p3525
tp3526
Rp3527
sg13
I1
sg14
I14
sg15
I6
sa(dp3528
g2
g3
(g7
S' Y\x95J\x9c\xad+@'
p3529
tp3530
Rp3531
sg13
I1
sg14
I15
sg15
I6
sa(dp3532
g2
g3
(g7
S'o\x93_e\xae,-@'
p3533
tp3534
Rp3535
sg13
I1
sg14
I16
sg15
I6
sa(dp3536
g2
g3
(g7
S'\xba\xb9j\xb3\x11^,@'
p3537
tp3538
Rp3539
sg13
I1
sg14
I17
sg15
I6
sa(dp3540
g2
g3
(g7
S'\x96\x0eU\x92\x96\xf7*@'
p3541
tp3542
Rp3543
sg13
I1
sg14
I18
sg15
I6
sa(dp3544
g2
g3
(g7
S'\xae\xeb2q\x8f\xd7)@'
p3545
tp3546
Rp3547
sg13
I1
sg14
I19
sg15
I6
sa(dp3548
g2
g3
(g7
S'\xc8\x0f#\x8d\xd4\xd8)@'
p3549
tp3550
Rp3551
sg13
I1
sg14
I20
sg15
I6
sa(dp3552
g2
g3
(g7
S'\x01\x8dV2c\xd1*@'
p3553
tp3554
Rp3555
sg13
I1
sg14
I21
sg15
I6
sa(dp3556
g2
g3
(g7
S'\x98/\xc1X\xab\x90+@'
p3557
tp3558
Rp3559
sg13
I1
sg14
I22
sg15
I6
sa(dp3560
g2
g3
(g7
S'\xfe+\xda\x10;\x9c+@'
p3561
tp3562
Rp3563
sg13
I1
sg14
I23
sg15
I6
sa(dp3564
g2
g3
(g7
S'/iy\xd2\r\x1f+@'
p3565
tp3566
Rp3567
sg13
I2
sg14
I0
sg15
I6
sa(dp3568
g2
g3
(g7
S'\x0e)wy\x1d9)@'
p3569
tp3570
Rp3571
sg13
I2
sg14
I1
sg15
I6
sa(dp3572
g2
g3
(g7
S'\x1d\x8f\xb0&\xbc\x0c)@'
p3573
tp3574
Rp3575
sg13
I2
sg14
I2
sg15
I6
sa(dp3576
g2
g3
(g7
S'R\xbd\xb6$;\x9e*@'
p3577
tp3578
Rp3579
sg13
I2
sg14
I3
sg15
I6
sa(dp3580
g2
g3
(g7
S'3\xb1+\xa5\x1f\x93/@'
p3581
tp3582
Rp3583
sg13
I2
sg14
I4
sg15
I6
sa(dp3584
g2
g3
(g7
S'\xa2\xb2\xb1\x99n\xd61@'
p3585
tp3586
Rp3587
sg13
I2
sg14
I5
sg15
I6
sa(dp3588
g2
g3
(g7
S'\xe4Id\x80~\x030@'
p3589
tp3590
Rp3591
sg13
I2
sg14
I6
sg15
I6
sa(dp3592
g2
g3
(g7
S'!\xbd\x03\xee\xc0\x96,@'
p3593
tp3594
Rp3595
sg13
I2
sg14
I7
sg15
I6
sa(dp3596
g2
g3
(g7
S'\x8b+\xb9\r\x1f\xbe+@'
p3597
tp3598
Rp3599
sg13
I2
sg14
I8
sg15
I6
sa(dp3600
g2
g3
(g7
S'\xb5\x0flh\xdb\xb0+@'
p3601
tp3602
Rp3603
sg13
I2
sg14
I9
sg15
I6
sa(dp3604
g2
g3
(g7
S'Mk\xb2\x1f\x163+@'
p3605
tp3606
Rp3607
sg13
I2
sg14
I10
sg15
I6
sa(dp3608
g2
g3
(g7
S'\xea\xf9+\t\x86\xf4*@'
p3609
tp3610
Rp3611
sg13
I2
sg14
I11
sg15
I6
sa(dp3612
g2
g3
(g7
S'\x01q\x8fLN\xd4*@'
p3613
tp3614
Rp3615
sg13
I2
sg14
I12
sg15
I6
sa(dp3616
g2
g3
(g7
S'?G%\xac|\xe7*@'
p3617
tp3618
Rp3619
sg13
I2
sg14
I13
sg15
I6
sa(dp3620
g2
g3
(g7
S'\xd9<VY\xe8m*@'
p3621
tp3622
Rp3623
sg13
I2
sg14
I14
sg15
I6
sa(dp3624
g2
g3
(g7
S'\x00\xb3\x13\x1c!\xcf+@'
p3625
tp3626
Rp3627
sg13
I2
sg14
I15
sg15
I6
sa(dp3628
g2
g3
(g7
S'\x8c\x98\xe4\x0bm\xec-@'
p3629
tp3630
Rp3631
sg13
I2
sg14
I16
sg15
I6
sa(dp3632
g2
g3
(g7
S'\x94\xfc\xf4\x03G\xa3,@'
p3633
tp3634
Rp3635
sg13
I2
sg14
I17
sg15
I6
sa(dp3636
g2
g3
(g7
S'\x87=\x96\xf2~A+@'
p3637
tp3638
Rp3639
sg13
I2
sg14
I18
sg15
I6
sa(dp3640
g2
g3
(g7
S'\xd3\x82\xd2-O#*@'
p3641
tp3642
Rp3643
sg13
I2
sg14
I19
sg15
I6
sa(dp3644
g2
g3
(g7
S'\xbcQ6\xc3\x89a)@'
p3645
tp3646
Rp3647
sg13
I2
sg14
I20
sg15
I6
sa(dp3648
g2
g3
(g7
S'\xa2\x89A\x02\x0cg*@'
p3649
tp3650
Rp3651
sg13
I2
sg14
I21
sg15
I6
sa(dp3652
g2
g3
(g7
S'm\xe7\x08\x85\x12/+@'
p3653
tp3654
Rp3655
sg13
I2
sg14
I22
sg15
I6
sa(dp3656
g2
g3
(g7
S'g\xd9\x88\xcc?\x9c+@'
p3657
tp3658
Rp3659
sg13
I2
sg14
I23
sg15
I6
sa(dp3660
g2
g3
(g7
S'\xea\xeb4R\xa1\xf8*@'
p3661
tp3662
Rp3663
sg13
I3
sg14
I0
sg15
I6
sa(dp3664
g2
g3
(g7
S'HaY\x9bT\xf3)@'
p3665
tp3666
Rp3667
sg13
I3
sg14
I1
sg15
I6
sa(dp3668
g2
g3
(g7
S'pt\xb6\x9c\xc6\xe0(@'
p3669
tp3670
Rp3671
sg13
I3
sg14
I2
sg15
I6
sa(dp3672
g2
g3
(g7
S'j9\xb4\xacH~*@'
p3673
tp3674
Rp3675
sg13
I3
sg14
I3
sg15
I6
sa(dp3676
g2
g3
(g7
S'\xa4T\xba\xc2\x98\xee/@'
p3677
tp3678
Rp3679
sg13
I3
sg14
I4
sg15
I6
sa(dp3680
g2
g3
(g7
S'~Ec(\xf0\xf21@'
p3681
tp3682
Rp3683
sg13
I3
sg14
I5
sg15
I6
sa(dp3684
g2
g3
(g7
S'\xb9Q\xfd\x83Ki0@'
p3685
tp3686
Rp3687
sg13
I3
sg14
I6
sg15
I6
sa(dp3688
g2
g3
(g7
S'\xa4\xac\xe7\x9b\x05#-@'
p3689
tp3690
Rp3691
sg13
I3
sg14
I7
sg15
I6
sa(dp3692
g2
g3
(g7
S'd\x81yJ\xccl,@'
p3693
tp3694
Rp3695
sg13
I3
sg14
I8
sg15
I6
sa(dp3696
g2
g3
(g7
S'\xed\xbd\xbc\xdf\xfa,,@'
p3697
tp3698
Rp3699
sg13
I3
sg14
I9
sg15
I6
sa(dp3700
g2
g3
(g7
S'V\xf0\xa1\x80\xfa\x91+@'
p3701
tp3702
Rp3703
sg13
I3
sg14
I10
sg15
I6
sa(dp3704
g2
g3
(g7
S'\x05\x8cM\xa5\xa1\xaa+@'
p3705
tp3706
Rp3707
sg13
I3
sg14
I11
sg15
I6
sa(dp3708
g2
g3
(g7
S'd\xa6\x8c\x1e\xdd\xc4+@'
p3709
tp3710
Rp3711
sg13
I3
sg14
I12
sg15
I6
sa(dp3712
g2
g3
(g7
S'S\xd3\xc5S=.+@'
p3713
tp3714
Rp3715
sg13
I3
sg14
I13
sg15
I6
sa(dp3716
g2
g3
(g7
S'^|\xdb_\x84\xa4+@'
p3717
tp3718
Rp3719
sg13
I3
sg14
I14
sg15
I6
sa(dp3720
g2
g3
(g7
S'BZ\xffUx\x03,@'
p3721
tp3722
Rp3723
sg13
I3
sg14
I15
sg15
I6
sa(dp3724
g2
g3
(g7
S'\xf5q\xfe\xccc\x1b.@'
p3725
tp3726
Rp3727
sg13
I3
sg14
I16
sg15
I6
sa(dp3728
g2
g3
(g7
S'\\\xec\x14\xc7\x19\xe9,@'
p3729
tp3730
Rp3731
sg13
I3
sg14
I17
sg15
I6
sa(dp3732
g2
g3
(g7
S'\x15b3\x06u\xa5+@'
p3733
tp3734
Rp3735
sg13
I3
sg14
I18
sg15
I6
sa(dp3736
g2
g3
(g7
S'\xec\x8am.\xa7w*@'
p3737
tp3738
Rp3739
sg13
I3
sg14
I19
sg15
I6
sa(dp3740
g2
g3
(g7
S'f\xd0\xa2\x12\xc4v)@'
p3741
tp3742
Rp3743
sg13
I3
sg14
I20
sg15
I6
sa(dp3744
g2
g3
(g7
S'j\xeaV\x9c\x9a\xcb*@'
p3745
tp3746
Rp3747
sg13
I3
sg14
I21
sg15
I6
sa(dp3748
g2
g3
(g7
S'\xb3r\x97\xd6G\t,@'
p3749
tp3750
Rp3751
sg13
I3
sg14
I22
sg15
I6
sa(dp3752
g2
g3
(g7
S'\x9b\xba&x\xf2q+@'
p3753
tp3754
Rp3755
sg13
I3
sg14
I23
sg15
I6
sa(dp3756
g2
g3
(g7
S'>n%F\xec\xc8*@'
p3757
tp3758
Rp3759
sg13
I4
sg14
I0
sg15
I6
sa(dp3760
g2
g3
(g7
S'\xd6B2\x97\xe4R*@'
p3761
tp3762
Rp3763
sg13
I4
sg14
I1
sg15
I6
sa(dp3764
g2
g3
(g7
S'pF5E\xba\x99*@'
p3765
tp3766
Rp3767
sg13
I4
sg14
I2
sg15
I6
sa(dp3768
g2
g3
(g7
S']\xb0\x0b\xffA\x83+@'
p3769
tp3770
Rp3771
sg13
I4
sg14
I3
sg15
I6
sa(dp3772
g2
g3
(g7
S'\xc5\x9b\xb8>g\x93/@'
p3773
tp3774
Rp3775
sg13
I4
sg14
I4
sg15
I6
sa(dp3776
g2
g3
(g7
S'\xb2\x081\x98S\xbd1@'
p3777
tp3778
Rp3779
sg13
I4
sg14
I5
sg15
I6
sa(dp3780
g2
g3
(g7
S'\xa1\x12+u\x15Q0@'
p3781
tp3782
Rp3783
sg13
I4
sg14
I6
sg15
I6
sa(dp3784
g2
g3
(g7
S'\x7f\xc2\xcdo\x85\xca,@'
p3785
tp3786
Rp3787
sg13
I4
sg14
I7
sg15
I6
sa(dp3788
g2
g3
(g7
S'\xb7\xff\x83\x89\x81o+@'
p3789
tp3790
Rp3791
sg13
I4
sg14
I8
sg15
I6
sa(dp3792
g2
g3
(g7
S'\xa6\x8f\x10\xd8C\xf2+@'
p3793
tp3794
Rp3795
sg13
I4
sg14
I9
sg15
I6
sa(dp3796
g2
g3
(g7
S'M\x94\xfc6E\xe9+@'
p3797
tp3798
Rp3799
sg13
I4
sg14
I10
sg15
I6
sa(dp3800
g2
g3
(g7
S'1\x08\x06\x0b/\xa9+@'
p3801
tp3802
Rp3803
sg13
I4
sg14
I11
sg15
I6
sa(dp3804
g2
g3
(g7
S'g\xc0\xb4\x94xh+@'
p3805
tp3806
Rp3807
sg13
I4
sg14
I12
sg15
I6
sa(dp3808
g2
g3
(g7
S'\xdc\xaa.\xdd^8,@'
p3809
tp3810
Rp3811
sg13
I4
sg14
I13
sg15
I6
sa(dp3812
g2
g3
(g7
S'\xe0|\x150\xb2\x8a,@'
p3813
tp3814
Rp3815
sg13
I4
sg14
I14
sg15
I6
sa(dp3816
g2
g3
(g7
S'\xe1\xfb\x9a\xb6\x9f\xa8,@'
p3817
tp3818
Rp3819
sg13
I4
sg14
I15
sg15
I6
sa(dp3820
g2
g3
(g7
S'[\x8blG\xf1).@'
p3821
tp3822
Rp3823
sg13
I4
sg14
I16
sg15
I6
sa(dp3824
g2
g3
(g7
S'\xa8x<\xd4\xa1\xdb,@'
p3825
tp3826
Rp3827
sg13
I4
sg14
I17
sg15
I6
sa(dp3828
g2
g3
(g7
S'/\xae\xfcQ\xd8\x80+@'
p3829
tp3830
Rp3831
sg13
I4
sg14
I18
sg15
I6
sa(dp3832
g2
g3
(g7
S'\xb8\x14\xef\xe0\x15\xae*@'
p3833
tp3834
Rp3835
sg13
I4
sg14
I19
sg15
I6
sa(dp3836
g2
g3
(g7
S'\xe0\x8a\xb7\xe17\xc9)@'
p3837
tp3838
Rp3839
sg13
I4
sg14
I20
sg15
I6
sa(dp3840
g2
g3
(g7
S'<\n\xceF\x9ep*@'
p3841
tp3842
Rp3843
sg13
I4
sg14
I21
sg15
I6
sa(dp3844
g2
g3
(g7
S'R}]\x8b\xeau+@'
p3845
tp3846
Rp3847
sg13
I4
sg14
I22
sg15
I6
sa(dp3848
g2
g3
(g7
S']\xbbo\x84Y\xe3+@'
p3849
tp3850
Rp3851
sg13
I4
sg14
I23
sg15
I6
sa(dp3852
g2
g3
(g7
S'\x0c\x0ebn\xf6\x07,@'
p3853
tp3854
Rp3855
sg13
I5
sg14
I0
sg15
I6
sa(dp3856
g2
g3
(g7
S'\xff\xbb\xc7\x98\xe4\x0f+@'
p3857
tp3858
Rp3859
sg13
I5
sg14
I1
sg15
I6
sa(dp3860
g2
g3
(g7
S'i\x04,C%2+@'
p3861
tp3862
Rp3863
sg13
I5
sg14
I2
sg15
I6
sa(dp3864
g2
g3
(g7
S'~e\x14\r>\xa8+@'
p3865
tp3866
Rp3867
sg13
I5
sg14
I3
sg15
I6
sa(dp3868
g2
g3
(g7
S'\xa4\xc2\x8b\xc8,7-@'
p3869
tp3870
Rp3871
sg13
I5
sg14
I4
sg15
I6
sa(dp3872
g2
g3
(g7
S'\x1a42niB/@'
p3873
tp3874
Rp3875
sg13
I5
sg14
I5
sg15
I6
sa(dp3876
g2
g3
(g7
S'\x82\xfc\n[Iz0@'
p3877
tp3878
Rp3879
sg13
I5
sg14
I6
sg15
I6
sa(dp3880
g2
g3
(g7
S'i\x16\xb5^^*/@'
p3881
tp3882
Rp3883
sg13
I5
sg14
I7
sg15
I6
sa(dp3884
g2
g3
(g7
S'Iuh\x10\x1e6,@'
p3885
tp3886
Rp3887
sg13
I5
sg14
I8
sg15
I6
sa(dp3888
g2
g3
(g7
S'n \x0f\xe9\xd2\x0b+@'
p3889
tp3890
Rp3891
sg13
I5
sg14
I9
sg15
I6
sa(dp3892
g2
g3
(g7
S'&\xe8\x8ap\xc3.*@'
p3893
tp3894
Rp3895
sg13
I5
sg14
I10
sg15
I6
sa(dp3896
g2
g3
(g7
S'\x0f\x81t\xba\xa9G*@'
p3897
tp3898
Rp3899
sg13
I5
sg14
I11
sg15
I6
sa(dp3900
g2
g3
(g7
S'D\xc7n\xa9\xbf\xbd*@'
p3901
tp3902
Rp3903
sg13
I5
sg14
I12
sg15
I6
sa(dp3904
g2
g3
(g7
S'<\xb1s\n\x8c\xd9*@'
p3905
tp3906
Rp3907
sg13
I5
sg14
I13
sg15
I6
sa(dp3908
g2
g3
(g7
S'`L\xdb\x083^+@'
p3909
tp3910
Rp3911
sg13
I5
sg14
I14
sg15
I6
sa(dp3912
g2
g3
(g7
S'k\xdc`\x9bj%+@'
p3913
tp3914
Rp3915
sg13
I5
sg14
I15
sg15
I6
sa(dp3916
g2
g3
(g7
S'<J^\x0c\xb3?+@'
p3917
tp3918
Rp3919
sg13
I5
sg14
I16
sg15
I6
sa(dp3920
g2
g3
(g7
S'm\xd4[\xb4]\xd7*@'
p3921
tp3922
Rp3923
sg13
I5
sg14
I17
sg15
I6
sa(dp3924
g2
g3
(g7
S'\xf5\x83L:T\xb1*@'
p3925
tp3926
Rp3927
sg13
I5
sg14
I18
sg15
I6
sa(dp3928
g2
g3
(g7
S'}t\xfe9\x88W*@'
p3929
tp3930
Rp3931
sg13
I5
sg14
I19
sg15
I6
sa(dp3932
g2
g3
(g7
S'n\xeeI\x817$+@'
p3933
tp3934
Rp3935
sg13
I5
sg14
I20
sg15
I6
sa(dp3936
g2
g3
(g7
S'\x1f\xd8r\x93!\xa7+@'
p3937
tp3938
Rp3939
sg13
I5
sg14
I21
sg15
I6
sa(dp3940
g2
g3
(g7
S'\xf6\xeb\xc5\xe6\x12I-@'
p3941
tp3942
Rp3943
sg13
I5
sg14
I22
sg15
I6
sa(dp3944
g2
g3
(g7
S'$!O\xe8\x11\x15.@'
p3945
tp3946
Rp3947
sg13
I5
sg14
I23
sg15
I6
sa(dp3948
g2
g3
(g7
S'OU\xe4\xb2t\xa8-@'
p3949
tp3950
Rp3951
sg13
I6
sg14
I0
sg15
I6
sa(dp3952
g2
g3
(g7
S'\xb8\xde\x11P\xe4<,@'
p3953
tp3954
Rp3955
sg13
I6
sg14
I1
sg15
I6
sa(dp3956
g2
g3
(g7
S'BK\x95\xd3\x04^,@'
p3957
tp3958
Rp3959
sg13
I6
sg14
I2
sg15
I6
sa(dp3960
g2
g3
(g7
S'\x9cE\xe9\x0fO\xd6,@'
p3961
tp3962
Rp3963
sg13
I6
sg14
I3
sg15
I6
sa(dp3964
g2
g3
(g7
S'\x18\x07\xfb\xca\t\x1f.@'
p3965
tp3966
Rp3967
sg13
I6
sg14
I4
sg15
I6
sa(dp3968
g2
g3
(g7
S'\xdfJ\xe9\x18\x92Y.@'
p3969
tp3970
Rp3971
sg13
I6
sg14
I5
sg15
I6
sa(dp3972
g2
g3
(g7
S'\xa0.i\xa2\xd7\xaa/@'
p3973
tp3974
Rp3975
sg13
I6
sg14
I6
sg15
I6
sa(dp3976
g2
g3
(g7
S'\xcdD\xb1\xe1\xfe\x1e.@'
p3977
tp3978
Rp3979
sg13
I6
sg14
I7
sg15
I6
sa(dp3980
g2
g3
(g7
S'\xb1\xbc\x88\xabN2,@'
p3981
tp3982
Rp3983
sg13
I6
sg14
I8
sg15
I6
sa(dp3984
g2
g3
(g7
S'9#1V\xec*+@'
p3985
tp3986
Rp3987
sg13
I6
sg14
I9
sg15
I6
sa(dp3988
g2
g3
(g7
S'\x86\x05\xb2\xe9\x17r)@'
p3989
tp3990
Rp3991
sg13
I6
sg14
I10
sg15
I6
sa(dp3992
g2
g3
(g7
S'2$\xbc\x1c\xa7\x86)@'
p3993
tp3994
Rp3995
sg13
I6
sg14
I11
sg15
I6
sa(dp3996
g2
g3
(g7
S'\x8aJT\x95\x8c\t*@'
p3997
tp3998
Rp3999
sg13
I6
sg14
I12
sg15
I6
sa(dp4000
g2
g3
(g7
S'\x89[hX\xd8\xaa*@'
p4001
tp4002
Rp4003
sg13
I6
sg14
I13
sg15
I6
sa(dp4004
g2
g3
(g7
S'#\xf1\t\xdc\xf4\x9a+@'
p4005
tp4006
Rp4007
sg13
I6
sg14
I14
sg15
I6
sa(dp4008
g2
g3
(g7
S'CA\x01\xfb\x93p+@'
p4009
tp4010
Rp4011
sg13
I6
sg14
I15
sg15
I6
sa(dp4012
g2
g3
(g7
S'\xf3\x9b>-\x85_+@'
p4013
tp4014
Rp4015
sg13
I6
sg14
I16
sg15
I6
sa(dp4016
g2
g3
(g7
S"7\xb6\x82U'\xe3*@"
p4017
tp4018
Rp4019
sg13
I6
sg14
I17
sg15
I6
sa(dp4020
g2
g3
(g7
S'R8\xd4\xe9{\xb5)@'
p4021
tp4022
Rp4023
sg13
I6
sg14
I18
sg15
I6
sa(dp4024
g2
g3
(g7
S'5*\x82R\x08\x90)@'
p4025
tp4026
Rp4027
sg13
I6
sg14
I19
sg15
I6
sa(dp4028
g2
g3
(g7
S'\xcf~h\xd5[\xbb*@'
p4029
tp4030
Rp4031
sg13
I6
sg14
I20
sg15
I6
sa(dp4032
g2
g3
(g7
S',\x1bb\x15\xa7Z*@'
p4033
tp4034
Rp4035
sg13
I6
sg14
I21
sg15
I6
sa(dp4036
g2
g3
(g7
S'\xf9\x06sL\x16x+@'
p4037
tp4038
Rp4039
sg13
I6
sg14
I22
sg15
I6
sa(dp4040
g2
g3
(g7
S'G\xa9\xceQM\xc7+@'
p4041
tp4042
Rp4043
sg13
I6
sg14
I23
sg15
I6
sa(dp4044
g2
g3
(g7
S'\t\xb4\x1c\xa5\xc5C*@'
p4045
tp4046
Rp4047
sg13
I0
sg14
I0
sg15
I7
sa(dp4048
g2
g3
(g7
S'\x01\xbd\x08\x8dy\x18*@'
p4049
tp4050
Rp4051
sg13
I0
sg14
I1
sg15
I7
sa(dp4052
g2
g3
(g7
S'\x9a\xc6E\xc8@\x97)@'
p4053
tp4054
Rp4055
sg13
I0
sg14
I2
sg15
I7
sa(dp4056
g2
g3
(g7
S'\x06\x91\x95z<\xcc+@'
p4057
tp4058
Rp4059
sg13
I0
sg14
I3
sg15
I7
sa(dp4060
g2
g3
(g7
S'\xae\x8e\xc2\xf5(\x1b.@'
p4061
tp4062
Rp4063
sg13
I0
sg14
I4
sg15
I7
sa(dp4064
g2
g3
(g7
S'TO\x00=\x7f\xb01@'
p4065
tp4066
Rp4067
sg13
I0
sg14
I5
sg15
I7
sa(dp4068
g2
g3
(g7
S"\x0f_\xc61H'0@"
p4069
tp4070
Rp4071
sg13
I0
sg14
I6
sg15
I7
sa(dp4072
g2
g3
(g7
S']W7\xf9Q\xe7,@'
p4073
tp4074
Rp4075
sg13
I0
sg14
I7
sg15
I7
sa(dp4076
g2
g3
(g7
S'\x92\xc3e\xc6\xaf\xdd+@'
p4077
tp4078
Rp4079
sg13
I0
sg14
I8
sg15
I7
sa(dp4080
g2
g3
(g7
S'}\xce\xe5J\x19o+@'
p4081
tp4082
Rp4083
sg13
I0
sg14
I9
sg15
I7
sa(dp4084
g2
g3
(g7
S'\n\x90\x1a\xfb\xb3\xd8*@'
p4085
tp4086
Rp4087
sg13
I0
sg14
I10
sg15
I7
sa(dp4088
g2
g3
(g7
S'\xb0\xf2\n\x10\xc2\x0b-@'
p4089
tp4090
Rp4091
sg13
I0
sg14
I11
sg15
I7
sa(dp4092
g2
g3
(g7
S'#\xe4$E&\xa9*@'
p4093
tp4094
Rp4095
sg13
I0
sg14
I12
sg15
I7
sa(dp4096
g2
g3
(g7
S'*_\xb2\x8a\xa7\xd7*@'
p4097
tp4098
Rp4099
sg13
I0
sg14
I13
sg15
I7
sa(dp4100
g2
g3
(g7
S'Vm\x9e\r\x0f\x8b*@'
p4101
tp4102
Rp4103
sg13
I0
sg14
I14
sg15
I7
sa(dp4104
g2
g3
(g7
S"\xfa'\x19^\xfe\x8d*@"
p4105
tp4106
Rp4107
sg13
I0
sg14
I15
sg15
I7
sa(dp4108
g2
g3
(g7
S'\xadz\xbf\xb7\xed\xc5+@'
p4109
tp4110
Rp4111
sg13
I0
sg14
I16
sg15
I7
sa(dp4112
g2
g3
(g7
S'Y\x95\xa3m)X+@'
p4113
tp4114
Rp4115
sg13
I0
sg14
I17
sg15
I7
sa(dp4116
g2
g3
(g7
S'aeRL\x16\xec)@'
p4117
tp4118
Rp4119
sg13
I0
sg14
I18
sg15
I7
sa(dp4120
g2
g3
(g7
S'\x1c\x91\xe0\xccna)@'
p4121
tp4122
Rp4123
sg13
I0
sg14
I19
sg15
I7
sa(dp4124
g2
g3
(g7
S'lP\xee\xee\xef\xda(@'
p4125
tp4126
Rp4127
sg13
I0
sg14
I20
sg15
I7
sa(dp4128
g2
g3
(g7
S'\xb0\xde\xfeKG\xb9)@'
p4129
tp4130
Rp4131
sg13
I0
sg14
I21
sg15
I7
sa(dp4132
g2
g3
(g7
S'\x92\xf3\xff3\xb9\x07*@'
p4133
tp4134
Rp4135
sg13
I0
sg14
I22
sg15
I7
sa(dp4136
g2
g3
(g7
S'\xea\x9b\x14U\x9c\xa5)@'
p4137
tp4138
Rp4139
sg13
I0
sg14
I23
sg15
I7
sa(dp4140
g2
g3
(g7
S'\x8a\xd7#E\xd8\xae)@'
p4141
tp4142
Rp4143
sg13
I1
sg14
I0
sg15
I7
sa(dp4144
g2
g3
(g7
S'\xf0\xdaP\x06\xf0O)@'
p4145
tp4146
Rp4147
sg13
I1
sg14
I1
sg15
I7
sa(dp4148
g2
g3
(g7
S'\xbf\xe2\x9c+\xda\x10)@'
p4149
tp4150
Rp4151
sg13
I1
sg14
I2
sg15
I7
sa(dp4152
g2
g3
(g7
S'\xcb\xa5\xe9V\xb4\xd7)@'
p4153
tp4154
Rp4155
sg13
I1
sg14
I3
sg15
I7
sa(dp4156
g2
g3
(g7
S'\xee\x17\x16\xb5\x10\xc3.@'
p4157
tp4158
Rp4159
sg13
I1
sg14
I4
sg15
I7
sa(dp4160
g2
g3
(g7
S'\xfc\xa6\xc0;t\r1@'
p4161
tp4162
Rp4163
sg13
I1
sg14
I5
sg15
I7
sa(dp4164
g2
g3
(g7
S'\xdf\x16\xe7\x8c\xae\x89/@'
p4165
tp4166
Rp4167
sg13
I1
sg14
I6
sg15
I7
sa(dp4168
g2
g3
(g7
S"\x98\xd9\x9a\x85\xf6'-@"
p4169
tp4170
Rp4171
sg13
I1
sg14
I7
sg15
I7
sa(dp4172
g2
g3
(g7
S'\xaf\xf1;\xdaJ\x05,@'
p4173
tp4174
Rp4175
sg13
I1
sg14
I8
sg15
I7
sa(dp4176
g2
g3
(g7
S'\xc4\x99M?0\x04,@'
p4177
tp4178
Rp4179
sg13
I1
sg14
I9
sg15
I7
sa(dp4180
g2
g3
(g7
S'\x91w\xddd\r\x85+@'
p4181
tp4182
Rp4183
sg13
I1
sg14
I10
sg15
I7
sa(dp4184
g2
g3
(g7
S'\x9a\x87m\x80\x08\xc0+@'
p4185
tp4186
Rp4187
sg13
I1
sg14
I11
sg15
I7
sa(dp4188
g2
g3
(g7
S'\xf9#\x90\xf8\xf2\xd8*@'
p4189
tp4190
Rp4191
sg13
I1
sg14
I12
sg15
I7
sa(dp4192
g2
g3
(g7
S'\xfeR`$6H*@'
p4193
tp4194
Rp4195
sg13
I1
sg14
I13
sg15
I7
sa(dp4196
g2
g3
(g7
S'\xf5Z\xc0\xfa\xa5\xab*@'
p4197
tp4198
Rp4199
sg13
I1
sg14
I14
sg15
I7
sa(dp4200
g2
g3
(g7
S'2\xd92\x99r\xa1*@'
p4201
tp4202
Rp4203
sg13
I1
sg14
I15
sg15
I7
sa(dp4204
g2
g3
(g7
S'$\xc6\xac*_y,@'
p4205
tp4206
Rp4207
sg13
I1
sg14
I16
sg15
I7
sa(dp4208
g2
g3
(g7
S'\xc6\xdc\xcb,\xe4c+@'
p4209
tp4210
Rp4211
sg13
I1
sg14
I17
sg15
I7
sa(dp4212
g2
g3
(g7
S'\x9e@\x01\xa762*@'
p4213
tp4214
Rp4215
sg13
I1
sg14
I18
sg15
I7
sa(dp4216
g2
g3
(g7
S'>S\xff\x93X\x8b)@'
p4217
tp4218
Rp4219
sg13
I1
sg14
I19
sg15
I7
sa(dp4220
g2
g3
(g7
S'\xcc+\x0e;JJ)@'
p4221
tp4222
Rp4223
sg13
I1
sg14
I20
sg15
I7
sa(dp4224
g2
g3
(g7
S'\x16+k\x19hV*@'
p4225
tp4226
Rp4227
sg13
I1
sg14
I21
sg15
I7
sa(dp4228
g2
g3
(g7
S',\r\xd4\xa1\x03\xc1*@'
p4229
tp4230
Rp4231
sg13
I1
sg14
I22
sg15
I7
sa(dp4232
g2
g3
(g7
S'\xf2K\x0c\xe4\x97~*@'
p4233
tp4234
Rp4235
sg13
I1
sg14
I23
sg15
I7
sa(dp4236
g2
g3
(g7
S'*\xc2\x96-\xb1\xd0)@'
p4237
tp4238
Rp4239
sg13
I2
sg14
I0
sg15
I7
sa(dp4240
g2
g3
(g7
S'b\xf8fXv\xd7(@'
p4241
tp4242
Rp4243
sg13
I2
sg14
I1
sg15
I7
sa(dp4244
g2
g3
(g7
S'\xe6\xf7\xc0\xe3\xea\x12)@'
p4245
tp4246
Rp4247
sg13
I2
sg14
I2
sg15
I7
sa(dp4248
g2
g3
(g7
S':y\r\xdb\x07\xa3)@'
p4249
tp4250
Rp4251
sg13
I2
sg14
I3
sg15
I7
sa(dp4252
g2
g3
(g7
S'\xaf\x16i\xcd\xe6+.@'
p4253
tp4254
Rp4255
sg13
I2
sg14
I4
sg15
I7
sa(dp4256
g2
g3
(g7
S'>\xe7\xc6wn\n1@'
p4257
tp4258
Rp4259
sg13
I2
sg14
I5
sg15
I7
sa(dp4260
g2
g3
(g7
S'\xe4\x81\xdc\xd6\xf3D/@'
p4261
tp4262
Rp4263
sg13
I2
sg14
I6
sg15
I7
sa(dp4264
g2
g3
(g7
S'$EM{z\x01-@'
p4265
tp4266
Rp4267
sg13
I2
sg14
I7
sg15
I7
sa(dp4268
g2
g3
(g7
S'\xf9+7\x99W9,@'
p4269
tp4270
Rp4271
sg13
I2
sg14
I8
sg15
I7
sa(dp4272
g2
g3
(g7
S'W\xea@\xf7.\x96+@'
p4273
tp4274
Rp4275
sg13
I2
sg14
I9
sg15
I7
sa(dp4276
g2
g3
(g7
S'\xf3\xf1\x86\xd8,\xed*@'
p4277
tp4278
Rp4279
sg13
I2
sg14
I10
sg15
I7
sa(dp4280
g2
g3
(g7
S'i\x81\x91\xb9\x1b\xa5*@'
p4281
tp4282
Rp4283
sg13
I2
sg14
I11
sg15
I7
sa(dp4284
g2
g3
(g7
S'\x17\xded\xaeR\x9b*@'
p4285
tp4286
Rp4287
sg13
I2
sg14
I12
sg15
I7
sa(dp4288
g2
g3
(g7
S'\x91U`\x07\xab\xf7*@'
p4289
tp4290
Rp4291
sg13
I2
sg14
I13
sg15
I7
sa(dp4292
g2
g3
(g7
S'\xa0\xd9U\x10\x89\x8c+@'
p4293
tp4294
Rp4295
sg13
I2
sg14
I14
sg15
I7
sa(dp4296
g2
g3
(g7
S"\x93\xec@'C,+@"
p4297
tp4298
Rp4299
sg13
I2
sg14
I15
sg15
I7
sa(dp4300
g2
g3
(g7
S'\xe5q\xbe;\xe3\xd3,@'
p4301
tp4302
Rp4303
sg13
I2
sg14
I16
sg15
I7
sa(dp4304
g2
g3
(g7
S'\xe7\x0b\xa0\x83\xbc\xb6+@'
p4305
tp4306
Rp4307
sg13
I2
sg14
I17
sg15
I7
sa(dp4308
g2
g3
(g7
S'\x95\xdb\xaeq\xd5\xa9*@'
p4309
tp4310
Rp4311
sg13
I2
sg14
I18
sg15
I7
sa(dp4312
g2
g3
(g7
S'\xc1\x9fK\x07\xa2\xe1)@'
p4313
tp4314
Rp4315
sg13
I2
sg14
I19
sg15
I7
sa(dp4316
g2
g3
(g7
S'\xb5\xd7\x08\xd0\xfeI)@'
p4317
tp4318
Rp4319
sg13
I2
sg14
I20
sg15
I7
sa(dp4320
g2
g3
(g7
S'3d\xee\xf7P\x8e*@'
p4321
tp4322
Rp4323
sg13
I2
sg14
I21
sg15
I7
sa(dp4324
g2
g3
(g7
S'*8\x01\n\x90\xbc+@'
p4325
tp4326
Rp4327
sg13
I2
sg14
I22
sg15
I7
sa(dp4328
g2
g3
(g7
S'M\xfc\xaa\xd3k$+@'
p4329
tp4330
Rp4331
sg13
I2
sg14
I23
sg15
I7
sa(dp4332
g2
g3
(g7
S'\xb8+\xc5\x01/\xf9)@'
p4333
tp4334
Rp4335
sg13
I3
sg14
I0
sg15
I7
sa(dp4336
g2
g3
(g7
S'CG${\xc1z)@'
p4337
tp4338
Rp4339
sg13
I3
sg14
I1
sg15
I7
sa(dp4340
g2
g3
(g7
S'\xa9_\x1dK\xf9$)@'
p4341
tp4342
Rp4343
sg13
I3
sg14
I2
sg15
I7
sa(dp4344
g2
g3
(g7
S'5?T=Y\xda)@'
p4345
tp4346
Rp4347
sg13
I3
sg14
I3
sg15
I7
sa(dp4348
g2
g3
(g7
S'\xb9\xabf\xe4\xc2\xc3.@'
p4349
tp4350
Rp4351
sg13
I3
sg14
I4
sg15
I7
sa(dp4352
g2
g3
(g7
S'\xd8rKbUQ1@'
p4353
tp4354
Rp4355
sg13
I3
sg14
I5
sg15
I7
sa(dp4356
g2
g3
(g7
S'\x1a\xec\xe9\xb0\x15#0@'
p4357
tp4358
Rp4359
sg13
I3
sg14
I6
sg15
I7
sa(dp4360
g2
g3
(g7
S'\x84\x9btX8\xc4-@'
p4361
tp4362
Rp4363
sg13
I3
sg14
I7
sg15
I7
sa(dp4364
g2
g3
(g7
S'Im+\xd1\x05\xac,@'
p4365
tp4366
Rp4367
sg13
I3
sg14
I8
sg15
I7
sa(dp4368
g2
g3
(g7
S'\x850\xe5\x00\x10\x84,@'
p4369
tp4370
Rp4371
sg13
I3
sg14
I9
sg15
I7
sa(dp4372
g2
g3
(g7
S'`p\xc8\x03\xae2,@'
p4373
tp4374
Rp4375
sg13
I3
sg14
I10
sg15
I7
sa(dp4376
g2
g3
(g7
S'\xe7=\x89\xe22\xfe+@'
p4377
tp4378
Rp4379
sg13
I3
sg14
I11
sg15
I7
sa(dp4380
g2
g3
(g7
S'g\x1f\t\xfc\xe7\xcc+@'
p4381
tp4382
Rp4383
sg13
I3
sg14
I12
sg15
I7
sa(dp4384
g2
g3
(g7
S'\xe7T\x1c\x9e\xe8\xe2+@'
p4385
tp4386
Rp4387
sg13
I3
sg14
I13
sg15
I7
sa(dp4388
g2
g3
(g7
S'i"\xfa\xc2\x93\xa2+@'
p4389
tp4390
Rp4391
sg13
I3
sg14
I14
sg15
I7
sa(dp4392
g2
g3
(g7
S'\xdb\xc2>I\x17\x8e,@'
p4393
tp4394
Rp4395
sg13
I3
sg14
I15
sg15
I7
sa(dp4396
g2
g3
(g7
S'\xcf\xa3P\xc8w\xad-@'
p4397
tp4398
Rp4399
sg13
I3
sg14
I16
sg15
I7
sa(dp4400
g2
g3
(g7
S'\tY\xaf/3\xf0,@'
p4401
tp4402
Rp4403
sg13
I3
sg14
I17
sg15
I7
sa(dp4404
g2
g3
(g7
S')\xae\\\x19\xbb\x7f+@'
p4405
tp4406
Rp4407
sg13
I3
sg14
I18
sg15
I7
sa(dp4408
g2
g3
(g7
S's\xdf\x14.\xc5\xcf*@'
p4409
tp4410
Rp4411
sg13
I3
sg14
I19
sg15
I7
sa(dp4412
g2
g3
(g7
S'7\x07\xa1\x8b\xaa\xb7)@'
p4413
tp4414
Rp4415
sg13
I3
sg14
I20
sg15
I7
sa(dp4416
g2
g3
(g7
S'Z\x82\xb4\xb8\xf4\x12*@'
p4417
tp4418
Rp4419
sg13
I3
sg14
I21
sg15
I7
sa(dp4420
g2
g3
(g7
S'{5v\x9bc\x12+@'
p4421
tp4422
Rp4423
sg13
I3
sg14
I22
sg15
I7
sa(dp4424
g2
g3
(g7
S'6rI>{\xb4+@'
p4425
tp4426
Rp4427
sg13
I3
sg14
I23
sg15
I7
sa(dp4428
g2
g3
(g7
S'\x8b\xc1W\xa6\xd3\xc0*@'
p4429
tp4430
Rp4431
sg13
I4
sg14
I0
sg15
I7
sa(dp4432
g2
g3
(g7
S'R"o\xc0\xcfW*@'
p4433
tp4434
Rp4435
sg13
I4
sg14
I1
sg15
I7
sa(dp4436
g2
g3
(g7
S'W\xc1_\xa8[\xea)@'
p4437
tp4438
Rp4439
sg13
I4
sg14
I2
sg15
I7
sa(dp4440
g2
g3
(g7
S'\x0c\x1e\r\x00\xb4\x0f+@'
p4441
tp4442
Rp4443
sg13
I4
sg14
I3
sg15
I7
sa(dp4444
g2
g3
(g7
S'W\xcb*\xad\xf3\x11.@'
p4445
tp4446
Rp4447
sg13
I4
sg14
I4
sg15
I7
sa(dp4448
g2
g3
(g7
S'\x18\xab\x1bl\xf1\x821@'
p4449
tp4450
Rp4451
sg13
I4
sg14
I5
sg15
I7
sa(dp4452
g2
g3
(g7
S'\xe1\xcd\xe3\xea\xf5\x1f0@'
p4453
tp4454
Rp4455
sg13
I4
sg14
I6
sg15
I7
sa(dp4456
g2
g3
(g7
S'\xa44/\xea\x8eA-@'
p4457
tp4458
Rp4459
sg13
I4
sg14
I7
sg15
I7
sa(dp4460
g2
g3
(g7
S'[e\xff\x8b\xc4>,@'
p4461
tp4462
Rp4463
sg13
I4
sg14
I8
sg15
I7
sa(dp4464
g2
g3
(g7
S'\x0c\x14\xd1\xc9\xd0\xfc+@'
p4465
tp4466
Rp4467
sg13
I4
sg14
I9
sg15
I7
sa(dp4468
g2
g3
(g7
S'\xd6\xbc=0#\xe2+@'
p4469
tp4470
Rp4471
sg13
I4
sg14
I10
sg15
I7
sa(dp4472
g2
g3
(g7
S'+g\xe6\\CY+@'
p4473
tp4474
Rp4475
sg13
I4
sg14
I11
sg15
I7
sa(dp4476
g2
g3
(g7
S'\x1c> \xb9\xe6\xc3*@'
p4477
tp4478
Rp4479
sg13
I4
sg14
I12
sg15
I7
sa(dp4480
g2
g3
(g7
S'L{\x12\xec\xc0\x0c+@'
p4481
tp4482
Rp4483
sg13
I4
sg14
I13
sg15
I7
sa(dp4484
g2
g3
(g7
S'&\xaf\xbc\xee\xa5e+@'
p4485
tp4486
Rp4487
sg13
I4
sg14
I14
sg15
I7
sa(dp4488
g2
g3
(g7
S'\xa4\xbdK\xd1\xcaJ+@'
p4489
tp4490
Rp4491
sg13
I4
sg14
I15
sg15
I7
sa(dp4492
g2
g3
(g7
S'\x16\x16\xa9u\xe1V,@'
p4493
tp4494
Rp4495
sg13
I4
sg14
I16
sg15
I7
sa(dp4496
g2
g3
(g7
S'Zn\xb8`\xe0\x13,@'
p4497
tp4498
Rp4499
sg13
I4
sg14
I17
sg15
I7
sa(dp4500
g2
g3
(g7
S'\xd8dP\xc8\x04\x1b+@'
p4501
tp4502
Rp4503
sg13
I4
sg14
I18
sg15
I7
sa(dp4504
g2
g3
(g7
S'\xe8\xb0\x00\xa3\xa8\x90*@'
p4505
tp4506
Rp4507
sg13
I4
sg14
I19
sg15
I7
sa(dp4508
g2
g3
(g7
S'\xbf\x046\xead\xb7*@'
p4509
tp4510
Rp4511
sg13
I4
sg14
I20
sg15
I7
sa(dp4512
g2
g3
(g7
S'\xa9\x0e\x00\xad\xe3\x1d+@'
p4513
tp4514
Rp4515
sg13
I4
sg14
I21
sg15
I7
sa(dp4516
g2
g3
(g7
S'r\xb9\x9f\xcb\xb0\x19,@'
p4517
tp4518
Rp4519
sg13
I4
sg14
I22
sg15
I7
sa(dp4520
g2
g3
(g7
S'\xd9d_\xedn\x06,@'
p4521
tp4522
Rp4523
sg13
I4
sg14
I23
sg15
I7
sa(dp4524
g2
g3
(g7
S'\x10\x01\xd3D\xb0},@'
p4525
tp4526
Rp4527
sg13
I5
sg14
I0
sg15
I7
sa(dp4528
g2
g3
(g7
S'E\\&\xfa\x90q+@'
p4529
tp4530
Rp4531
sg13
I5
sg14
I1
sg15
I7
sa(dp4532
g2
g3
(g7
S'3\xef\xe6\xe5\xdd\xcb*@'
p4533
tp4534
Rp4535
sg13
I5
sg14
I2
sg15
I7
sa(dp4536
g2
g3
(g7
S'\x96\x00\xaa3\xfd7,@'
p4537
tp4538
Rp4539
sg13
I5
sg14
I3
sg15
I7
sa(dp4540
g2
g3
(g7
S'\xd5Hm\x95\x86v,@'
p4541
tp4542
Rp4543
sg13
I5
sg14
I4
sg15
I7
sa(dp4544
g2
g3
(g7
S'\xe6~.TL\x13.@'
p4545
tp4546
Rp4547
sg13
I5
sg14
I5
sg15
I7
sa(dp4548
g2
g3
(g7
S'\x1b\xef7\xde\xd0\xe6-@'
p4549
tp4550
Rp4551
sg13
I5
sg14
I6
sg15
I7
sa(dp4552
g2
g3
(g7
S'\xf9<\xf3\xc7\x9a\x87-@'
p4553
tp4554
Rp4555
sg13
I5
sg14
I7
sg15
I7
sa(dp4556
g2
g3
(g7
S'\xee\r\xe4J\xd8\xcf+@'
p4557
tp4558
Rp4559
sg13
I5
sg14
I8
sg15
I7
sa(dp4560
g2
g3
(g7
S'k\xbb\xd24\xa8A+@'
p4561
tp4562
Rp4563
sg13
I5
sg14
I9
sg15
I7
sa(dp4564
g2
g3
(g7
S'7\x1dB\xde\x8fo*@'
p4565
tp4566
Rp4567
sg13
I5
sg14
I10
sg15
I7
sa(dp4568
g2
g3
(g7
S'\xcbK\x0ft,I*@'
p4569
tp4570
Rp4571
sg13
I5
sg14
I11
sg15
I7
sa(dp4572
g2
g3
(g7
S'\xb3Xg\xd47\x93*@'
p4573
tp4574
Rp4575
sg13
I5
sg14
I12
sg15
I7
sa(dp4576
g2
g3
(g7
S'\xda{\xd4\x87L\x1b*@'
p4577
tp4578
Rp4579
sg13
I5
sg14
I13
sg15
I7
sa(dp4580
g2
g3
(g7
S'>\xdf\xaa\xcbs\x81*@'
p4581
tp4582
Rp4583
sg13
I5
sg14
I14
sg15
I7
sa(dp4584
g2
g3
(g7
S'\xff\xc3=;\x88\x99*@'
p4585
tp4586
Rp4587
sg13
I5
sg14
I15
sg15
I7
sa(dp4588
g2
g3
(g7
S'\xfa\xab\x8e\x9e{\x85*@'
p4589
tp4590
Rp4591
sg13
I5
sg14
I16
sg15
I7
sa(dp4592
g2
g3
(g7
S'`\xa02*\xa3\x8a*@'
p4593
tp4594
Rp4595
sg13
I5
sg14
I17
sg15
I7
sa(dp4596
g2
g3
(g7
S'\xa2\x85\x9b\xac\xbd\x82*@'
p4597
tp4598
Rp4599
sg13
I5
sg14
I18
sg15
I7
sa(dp4600
g2
g3
(g7
S'x\xf1\x10\xc9\xdba*@'
p4601
tp4602
Rp4603
sg13
I5
sg14
I19
sg15
I7
sa(dp4604
g2
g3
(g7
S'"\x8dfU\xac\xc9+@'
p4605
tp4606
Rp4607
sg13
I5
sg14
I20
sg15
I7
sa(dp4608
g2
g3
(g7
S'\x83\xd5_m\xea\xef+@'
p4609
tp4610
Rp4611
sg13
I5
sg14
I21
sg15
I7
sa(dp4612
g2
g3
(g7
S'\xc8o\xe4\x8b\xc4\xa3-@'
p4613
tp4614
Rp4615
sg13
I5
sg14
I22
sg15
I7
sa(dp4616
g2
g3
(g7
S'IN\x13; \xc6-@'
p4617
tp4618
Rp4619
sg13
I5
sg14
I23
sg15
I7
sa(dp4620
g2
g3
(g7
S'\x10\xd8\x98\x9cXj-@'
p4621
tp4622
Rp4623
sg13
I6
sg14
I0
sg15
I7
sa(dp4624
g2
g3
(g7
S'V\xd3;\x02\xfc\x88,@'
p4625
tp4626
Rp4627
sg13
I6
sg14
I1
sg15
I7
sa(dp4628
g2
g3
(g7
S'\xa8\x83r=e\xf6+@'
p4629
tp4630
Rp4631
sg13
I6
sg14
I2
sg15
I7
sa(dp4632
g2
g3
(g7
S'\xf9\xba\xaf\xf3\xbe\x87,@'
p4633
tp4634
Rp4635
sg13
I6
sg14
I3
sg15
I7
sa(dp4636
g2
g3
(g7
S',6\xa7F\xce\xe6,@'
p4637
tp4638
Rp4639
sg13
I6
sg14
I4
sg15
I7
sa(dp4640
g2
g3
(g7
S'\x9f\xads\x9c\xb4\xe5.@'
p4641
tp4642
Rp4643
sg13
I6
sg14
I5
sg15
I7
sa(dp4644
g2
g3
(g7
S'\xfb\xfeMx\xca^.@'
p4645
tp4646
Rp4647
sg13
I6
sg14
I6
sg15
I7
sa(dp4648
g2
g3
(g7
S'i.sugH-@'
p4649
tp4650
Rp4651
sg13
I6
sg14
I7
sg15
I7
sa(dp4652
g2
g3
(g7
S"\x99\x12'%\xc6r,@"
p4653
tp4654
Rp4655
sg13
I6
sg14
I8
sg15
I7
sa(dp4656
g2
g3
(g7
S'\xac\x8aK\x8a\xb8$*@'
p4657
tp4658
Rp4659
sg13
I6
sg14
I9
sg15
I7
sa(dp4660
g2
g3
(g7
S'\x00\xf4\x8f2~p)@'
p4661
tp4662
Rp4663
sg13
I6
sg14
I10
sg15
I7
sa(dp4664
g2
g3
(g7
S'\xe2\xfa{\x95<`*@'
p4665
tp4666
Rp4667
sg13
I6
sg14
I11
sg15
I7
sa(dp4668
g2
g3
(g7
S'h\x07\x08\x04\x1d\x06*@'
p4669
tp4670
Rp4671
sg13
I6
sg14
I12
sg15
I7
sa(dp4672
g2
g3
(g7
S'\x8c\x0bXd\x8c\xbf*@'
p4673
tp4674
Rp4675
sg13
I6
sg14
I13
sg15
I7
sa(dp4676
g2
g3
(g7
S'8cgW\xff-+@'
p4677
tp4678
Rp4679
sg13
I6
sg14
I14
sg15
I7
sa(dp4680
g2
g3
(g7
S'\xc7\x14\x13\xccU\n+@'
p4681
tp4682
Rp4683
sg13
I6
sg14
I15
sg15
I7
sa(dp4684
g2
g3
(g7
S'`\x93\x95N_w+@'
p4685
tp4686
Rp4687
sg13
I6
sg14
I16
sg15
I7
sa(dp4688
g2
g3
(g7
S'\xbc\xf7\xce\xeb3\x98*@'
p4689
tp4690
Rp4691
sg13
I6
sg14
I17
sg15
I7
sa(dp4692
g2
g3
(g7
S'\xc8f\x9c{\x8eV*@'
p4693
tp4694
Rp4695
sg13
I6
sg14
I18
sg15
I7
sa(dp4696
g2
g3
(g7
S')\xdb\xa5\x14\x8c\xc2)@'
p4697
tp4698
Rp4699
sg13
I6
sg14
I19
sg15
I7
sa(dp4700
g2
g3
(g7
S'\xcf\xd1\xdf_\x90\x83+@'
p4701
tp4702
Rp4703
sg13
I6
sg14
I20
sg15
I7
sa(dp4704
g2
g3
(g7
S'\x1f\xb9\x02\xe8\xa1\x8a+@'
p4705
tp4706
Rp4707
sg13
I6
sg14
I21
sg15
I7
sa(dp4708
g2
g3
(g7
S'\xe7\xacT[\x90\x98*@'
p4709
tp4710
Rp4711
sg13
I6
sg14
I22
sg15
I7
sa(dp4712
g2
g3
(g7
S'k\xf4\n\xb3\xe1\xb2*@'
p4713
tp4714
Rp4715
sg13
I6
sg14
I23
sg15
I7
sa(dp4716
g2
g3
(g7
S"\xfa`V\xc9'\x84*@"
p4717
tp4718
Rp4719
sg13
I0
sg14
I0
sg15
I8
sa(dp4720
g2
g3
(g7
S'~d-\x86\x1cN*@'
p4721
tp4722
Rp4723
sg13
I0
sg14
I1
sg15
I8
sa(dp4724
g2
g3
(g7
S'\xbe~R\xbf\xad\x8b)@'
p4725
tp4726
Rp4727
sg13
I0
sg14
I2
sg15
I8
sa(dp4728
g2
g3
(g7
S'\x17\xc3\x0b\xdf\xf3D*@'
p4729
tp4730
Rp4731
sg13
I0
sg14
I3
sg15
I8
sa(dp4732
g2
g3
(g7
S'm\xa2\x13\xc0\xb7).@'
p4733
tp4734
Rp4735
sg13
I0
sg14
I4
sg15
I8
sa(dp4736
g2
g3
(g7
S'\x7fS\x03\xae\x17\xe20@'
p4737
tp4738
Rp4739
sg13
I0
sg14
I5
sg15
I8
sa(dp4740
g2
g3
(g7
S'f\x927\x16\xf8U/@'
p4741
tp4742
Rp4743
sg13
I0
sg14
I6
sg15
I8
sa(dp4744
g2
g3
(g7
S"'9\xd1X\xea\xf6,@"
p4745
tp4746
Rp4747
sg13
I0
sg14
I7
sg15
I8
sa(dp4748
g2
g3
(g7
S"\xcar'\xaf\xb8O,@"
p4749
tp4750
Rp4751
sg13
I0
sg14
I8
sg15
I8
sa(dp4752
g2
g3
(g7
S'g5\xdf?\xdes+@'
p4753
tp4754
Rp4755
sg13
I0
sg14
I9
sg15
I8
sa(dp4756
g2
g3
(g7
S'an\x13m\xbfv*@'
p4757
tp4758
Rp4759
sg13
I0
sg14
I10
sg15
I8
sa(dp4760
g2
g3
(g7
S'\xef\x04j\xeb\xce\xbd*@'
p4761
tp4762
Rp4763
sg13
I0
sg14
I11
sg15
I8
sa(dp4764
g2
g3
(g7
S'}\x02\xc2\xe3?\xf6)@'
p4765
tp4766
Rp4767
sg13
I0
sg14
I12
sg15
I8
sa(dp4768
g2
g3
(g7
S'\x84\xd3\xe5f\xc7X*@'
p4769
tp4770
Rp4771
sg13
I0
sg14
I13
sg15
I8
sa(dp4772
g2
g3
(g7
S'\xd2\\\xb2\xbc\xb4%*@'
p4773
tp4774
Rp4775
sg13
I0
sg14
I14
sg15
I8
sa(dp4776
g2
g3
(g7
S'Ogd\x0c\x82\xca*@'
p4777
tp4778
Rp4779
sg13
I0
sg14
I15
sg15
I8
sa(dp4780
g2
g3
(g7
S'\x07"\xb2V\xc8"-@'
p4781
tp4782
Rp4783
sg13
I0
sg14
I16
sg15
I8
sa(dp4784
g2
g3
(g7
S'\xd2u\xd0\x0eyT+@'
p4785
tp4786
Rp4787
sg13
I0
sg14
I17
sg15
I8
sa(dp4788
g2
g3
(g7
S'\x8d\xa2\x92\xdc\x8aH*@'
p4789
tp4790
Rp4791
sg13
I0
sg14
I18
sg15
I8
sa(dp4792
g2
g3
(g7
S'\xbb%pR\x01\xa2)@'
p4793
tp4794
Rp4795
sg13
I0
sg14
I19
sg15
I8
sa(dp4796
g2
g3
(g7
S'\x8a\x11+\xe4u\xa9)@'
p4797
tp4798
Rp4799
sg13
I0
sg14
I20
sg15
I8
sa(dp4800
g2
g3
(g7
S'\xfa\xf8\xb7\x8fQ\xe9*@'
p4801
tp4802
Rp4803
sg13
I0
sg14
I21
sg15
I8
sa(dp4804
g2
g3
(g7
S'\xd78\x1f\xf3\x1cF+@'
p4805
tp4806
Rp4807
sg13
I0
sg14
I22
sg15
I8
sa(dp4808
g2
g3
(g7
S'IcZ\xc4+\x9e*@'
p4809
tp4810
Rp4811
sg13
I0
sg14
I23
sg15
I8
sa(dp4812
g2
g3
(g7
S'\x95w\xeb\xfc+\x92)@'
p4813
tp4814
Rp4815
sg13
I1
sg14
I0
sg15
I8
sa(dp4816
g2
g3
(g7
S'\xc4\xe4T\x97\xd2x(@'
p4817
tp4818
Rp4819
sg13
I1
sg14
I1
sg15
I8
sa(dp4820
g2
g3
(g7
S'!\xf7m\xb8\xd65)@'
p4821
tp4822
Rp4823
sg13
I1
sg14
I2
sg15
I8
sa(dp4824
g2
g3
(g7
S'\xad\xb3\xc52b\x7f)@'
p4825
tp4826
Rp4827
sg13
I1
sg14
I3
sg15
I8
sa(dp4828
g2
g3
(g7
S'\xaa5\xd7\xb6_2.@'
p4829
tp4830
Rp4831
sg13
I1
sg14
I4
sg15
I8
sa(dp4832
g2
g3
(g7
S'Q\xc9\x19&\x9e01@'
p4833
tp4834
Rp4835
sg13
I1
sg14
I5
sg15
I8
sa(dp4836
g2
g3
(g7
S'\xfc\xb4\xd6]\xed*/@'
p4837
tp4838
Rp4839
sg13
I1
sg14
I6
sg15
I8
sa(dp4840
g2
g3
(g7
S';\xe2LV)\x07-@'
p4841
tp4842
Rp4843
sg13
I1
sg14
I7
sg15
I8
sa(dp4844
g2
g3
(g7
S'\xcbn\xb2\xe8\xd39,@'
p4845
tp4846
Rp4847
sg13
I1
sg14
I8
sg15
I8
sa(dp4848
g2
g3
(g7
S'\x9c\x8epnQc,@'
p4849
tp4850
Rp4851
sg13
I1
sg14
I9
sg15
I8
sa(dp4852
g2
g3
(g7
S'\xfb\xb1\xeeH\xc9{+@'
p4853
tp4854
Rp4855
sg13
I1
sg14
I10
sg15
I8
sa(dp4856
g2
g3
(g7
S'\xdc\xb8*W\xa9l+@'
p4857
tp4858
Rp4859
sg13
I1
sg14
I11
sg15
I8
sa(dp4860
g2
g3
(g7
S'z\xf1\xf6\x89\xce\x94*@'
p4861
tp4862
Rp4863
sg13
I1
sg14
I12
sg15
I8
sa(dp4864
g2
g3
(g7
S'\xb2`\xf5\xa8N\xd8*@'
p4865
tp4866
Rp4867
sg13
I1
sg14
I13
sg15
I8
sa(dp4868
g2
g3
(g7
S'B\x9a\x9fF\xe1\xf3*@'
p4869
tp4870
Rp4871
sg13
I1
sg14
I14
sg15
I8
sa(dp4872
g2
g3
(g7
S'\xb7<\x88h=\xa5*@'
p4873
tp4874
Rp4875
sg13
I1
sg14
I15
sg15
I8
sa(dp4876
g2
g3
(g7
S'_\xf5\x1c\xd1\xfac,@'
p4877
tp4878
Rp4879
sg13
I1
sg14
I16
sg15
I8
sa(dp4880
g2
g3
(g7
S'\n\x0e\xb0\xeb\xe8n+@'
p4881
tp4882
Rp4883
sg13
I1
sg14
I17
sg15
I8
sa(dp4884
g2
g3
(g7
S'\xed\xab\xeb\xaf\x81\x12*@'
p4885
tp4886
Rp4887
sg13
I1
sg14
I18
sg15
I8
sa(dp4888
g2
g3
(g7
S'\xaa\x96\x7f\xf6\x91\xb9)@'
p4889
tp4890
Rp4891
sg13
I1
sg14
I19
sg15
I8
sa(dp4892
g2
g3
(g7
S'\xc9K\xc0\x1bSz)@'
p4893
tp4894
Rp4895
sg13
I1
sg14
I20
sg15
I8
sa(dp4896
g2
g3
(g7
S'\x14T\xaf\xfc\xd8\xc6*@'
p4897
tp4898
Rp4899
sg13
I1
sg14
I21
sg15
I8
sa(dp4900
g2
g3
(g7
S'\xd1\xd0\xd9\xec\xfa>,@'
p4901
tp4902
Rp4903
sg13
I1
sg14
I22
sg15
I8
sa(dp4904
g2
g3
(g7
S'\xf4L2v\x97++@'
p4905
tp4906
Rp4907
sg13
I1
sg14
I23
sg15
I8
sa(dp4908
g2
g3
(g7
S'\xa0\xa0\xa0\x9d\xbd\x95)@'
p4909
tp4910
Rp4911
sg13
I2
sg14
I0
sg15
I8
sa(dp4912
g2
g3
(g7
S'\x8bP\x0bZ\x02\xed(@'
p4913
tp4914
Rp4915
sg13
I2
sg14
I1
sg15
I8
sa(dp4916
g2
g3
(g7
S'D2\xaa\x05\xe7\xdf(@'
p4917
tp4918
Rp4919
sg13
I2
sg14
I2
sg15
I8
sa(dp4920
g2
g3
(g7
S'\x8f\x9c\xce\x1b\xc7*)@'
p4921
tp4922
Rp4923
sg13
I2
sg14
I3
sg15
I8
sa(dp4924
g2
g3
(g7
S'\xf3\xd0@\x1e\x00\\-@'
p4925
tp4926
Rp4927
sg13
I2
sg14
I4
sg15
I8
sa(dp4928
g2
g3
(g7
S'\x92\x91\xc3:h\xa91@'
p4929
tp4930
Rp4931
sg13
I2
sg14
I5
sg15
I8
sa(dp4932
g2
g3
(g7
S'\xc7r\xc6\xf2ZI/@'
p4933
tp4934
Rp4935
sg13
I2
sg14
I6
sg15
I8
sa(dp4936
g2
g3
(g7
S'\x9a\xc2V*\xec\xde,@'
p4937
tp4938
Rp4939
sg13
I2
sg14
I7
sg15
I8
sa(dp4940
g2
g3
(g7
S'\xca\xa8\x1f\x1a\x7fq,@'
p4941
tp4942
Rp4943
sg13
I2
sg14
I8
sg15
I8
sa(dp4944
g2
g3
(g7
S'\x10WD\xd2\\t+@'
p4945
tp4946
Rp4947
sg13
I2
sg14
I9
sg15
I8
sa(dp4948
g2
g3
(g7
S'<0DH1\xa8+@'
p4949
tp4950
Rp4951
sg13
I2
sg14
I10
sg15
I8
sa(dp4952
g2
g3
(g7
S'\x81L\xde3\x1b%,@'
p4953
tp4954
Rp4955
sg13
I2
sg14
I11
sg15
I8
sa(dp4956
g2
g3
(g7
S'\xe6\xa5>\xab\xc4\x8b*@'
p4957
tp4958
Rp4959
sg13
I2
sg14
I12
sg15
I8
sa(dp4960
g2
g3
(g7
S'r$\x1b\xa6\xa4\x90+@'
p4961
tp4962
Rp4963
sg13
I2
sg14
I13
sg15
I8
sa(dp4964
g2
g3
(g7
S'\x89\x85\x03?z>+@'
p4965
tp4966
Rp4967
sg13
I2
sg14
I14
sg15
I8
sa(dp4968
g2
g3
(g7
S'\xe9\xbaS\x8c2<+@'
p4969
tp4970
Rp4971
sg13
I2
sg14
I15
sg15
I8
sa(dp4972
g2
g3
(g7
S'Yw\x03\x95k\x92,@'
p4973
tp4974
Rp4975
sg13
I2
sg14
I16
sg15
I8
sa(dp4976
g2
g3
(g7
S'\xfc\xb3n+\xe8\xa4+@'
p4977
tp4978
Rp4979
sg13
I2
sg14
I17
sg15
I8
sa(dp4980
g2
g3
(g7
S'\xa2"+\xac\x80\xb4*@'
p4981
tp4982
Rp4983
sg13
I2
sg14
I18
sg15
I8
sa(dp4984
g2
g3
(g7
S'i\xdb\x12\xb3\x98"*@'
p4985
tp4986
Rp4987
sg13
I2
sg14
I19
sg15
I8
sa(dp4988
g2
g3
(g7
S'oz8\x82>\xa0)@'
p4989
tp4990
Rp4991
sg13
I2
sg14
I20
sg15
I8
sa(dp4992
g2
g3
(g7
S'}\xb4\x8b\x9fg\xd2*@'
p4993
tp4994
Rp4995
sg13
I2
sg14
I21
sg15
I8
sa(dp4996
g2
g3
(g7
S'`\xf4m\xdd\x99n+@'
p4997
tp4998
Rp4999
sg13
I2
sg14
I22
sg15
I8
sa(dp5000
g2
g3
(g7
S'\x05\xc7\xd0\xeabT+@'
p5001
tp5002
Rp5003
sg13
I2
sg14
I23
sg15
I8
sa(dp5004
g2
g3
(g7
S'\xd2\xb5\\t\x1e\xf0)@'
p5005
tp5006
Rp5007
sg13
I3
sg14
I0
sg15
I8
sa(dp5008
g2
g3
(g7
S'\xa9mO\xdc\x0e\x12)@'
p5009
tp5010
Rp5011
sg13
I3
sg14
I1
sg15
I8
sa(dp5012
g2
g3
(g7
S'\xec \xd04wi)@'
p5013
tp5014
Rp5015
sg13
I3
sg14
I2
sg15
I8
sa(dp5016
g2
g3
(g7
S'\x1ag1\xffN\xf9)@'
p5017
tp5018
Rp5019
sg13
I3
sg14
I3
sg15
I8
sa(dp5020
g2
g3
(g7
S'\xe8\xcc\xc3:\x1fA.@'
p5021
tp5022
Rp5023
sg13
I3
sg14
I4
sg15
I8
sa(dp5024
g2
g3
(g7
S'\x1aG\xa3lf\x021@'
p5025
tp5026
Rp5027
sg13
I3
sg14
I5
sg15
I8
sa(dp5028
g2
g3
(g7
S"\xec_d'\xe7\xf7.@"
p5029
tp5030
Rp5031
sg13
I3
sg14
I6
sg15
I8
sa(dp5032
g2
g3
(g7
S'A\xc1\xdd$\xcf9-@'
p5033
tp5034
Rp5035
sg13
I3
sg14
I7
sg15
I8
sa(dp5036
g2
g3
(g7
S':?;C\xd4\x19-@'
p5037
tp5038
Rp5039
sg13
I3
sg14
I8
sg15
I8
sa(dp5040
g2
g3
(g7
S'\xdc\xacG\xd8\xcc\xa0,@'
p5041
tp5042
Rp5043
sg13
I3
sg14
I9
sg15
I8
sa(dp5044
g2
g3
(g7
S'\xd1\xaf\x0b0R\x03,@'
p5045
tp5046
Rp5047
sg13
I3
sg14
I10
sg15
I8
sa(dp5048
g2
g3
(g7
S'\xe5\xbf\t\xd1-\x88+@'
p5049
tp5050
Rp5051
sg13
I3
sg14
I11
sg15
I8
sa(dp5052
g2
g3
(g7
S'\xca:\x90\xb8\xf3m+@'
p5053
tp5054
Rp5055
sg13
I3
sg14
I12
sg15
I8
sa(dp5056
g2
g3
(g7
S'\xb7\x027UCZ+@'
p5057
tp5058
Rp5059
sg13
I3
sg14
I13
sg15
I8
sa(dp5060
g2
g3
(g7
S'\xcf\xc2\xe1\x02\xbbj+@'
p5061
tp5062
Rp5063
sg13
I3
sg14
I14
sg15
I8
sa(dp5064
g2
g3
(g7
S'@\xb0\xb5\xf5\xda\xe8+@'
p5065
tp5066
Rp5067
sg13
I3
sg14
I15
sg15
I8
sa(dp5068
g2
g3
(g7
S'\xf0~\x9b\xb2\xab\x98,@'
p5069
tp5070
Rp5071
sg13
I3
sg14
I16
sg15
I8
sa(dp5072
g2
g3
(g7
S'!y\x15\x87\x14\x8d,@'
p5073
tp5074
Rp5075
sg13
I3
sg14
I17
sg15
I8
sa(dp5076
g2
g3
(g7
S'>\xfc@*\xd2)+@'
p5077
tp5078
Rp5079
sg13
I3
sg14
I18
sg15
I8
sa(dp5080
g2
g3
(g7
S'\xe9@8\xb5\xe8y*@'
p5081
tp5082
Rp5083
sg13
I3
sg14
I19
sg15
I8
sa(dp5084
g2
g3
(g7
S'\x1b\x9cu\x95C\x14*@'
p5085
tp5086
Rp5087
sg13
I3
sg14
I20
sg15
I8
sa(dp5088
g2
g3
(g7
S'\xce\x99\x9e\xbd\xb2\x0c+@'
p5089
tp5090
Rp5091
sg13
I3
sg14
I21
sg15
I8
sa(dp5092
g2
g3
(g7
S'\x08\x0b\xd3\xc4!\xb4+@'
p5093
tp5094
Rp5095
sg13
I3
sg14
I22
sg15
I8
sa(dp5096
g2
g3
(g7
S'&\xc1\xd6\x1b7\xf5+@'
p5097
tp5098
Rp5099
sg13
I3
sg14
I23
sg15
I8
sa(dp5100
g2
g3
(g7
S'7i\xee\xe1\xdf\xf9*@'
p5101
tp5102
Rp5103
sg13
I4
sg14
I0
sg15
I8
sa(dp5104
g2
g3
(g7
S'w\xa9\x99y\x07\xa3)@'
p5105
tp5106
Rp5107
sg13
I4
sg14
I1
sg15
I8
sa(dp5108
g2
g3
(g7
S'\x9ce\xf2\x15\x88t)@'
p5109
tp5110
Rp5111
sg13
I4
sg14
I2
sg15
I8
sa(dp5112
g2
g3
(g7
S'>\x93u\x8eh6*@'
p5113
tp5114
Rp5115
sg13
I4
sg14
I3
sg15
I8
sa(dp5116
g2
g3
(g7
S'\xdf5\xb1J_\xd2,@'
p5117
tp5118
Rp5119
sg13
I4
sg14
I4
sg15
I8
sa(dp5120
g2
g3
(g7
S'\xca\x18\x08\x86\xea\x0e1@'
p5121
tp5122
Rp5123
sg13
I4
sg14
I5
sg15
I8
sa(dp5124
g2
g3
(g7
S'\xa8\xe8\xb4\x81\x8e*0@'
p5125
tp5126
Rp5127
sg13
I4
sg14
I6
sg15
I8
sa(dp5128
g2
g3
(g7
S'X\x8a\xa1\x85\xd5\xcd,@'
p5129
tp5130
Rp5131
sg13
I4
sg14
I7
sg15
I8
sa(dp5132
g2
g3
(g7
S'\xcb\xa7\x19\xe55/,@'
p5133
tp5134
Rp5135
sg13
I4
sg14
I8
sg15
I8
sa(dp5136
g2
g3
(g7
S'\xf5\x8e\xee\xca\xb8P,@'
p5137
tp5138
Rp5139
sg13
I4
sg14
I9
sg15
I8
sa(dp5140
g2
g3
(g7
S'\xb5\x8bE\x7f\x1d\x0e+@'
p5141
tp5142
Rp5143
sg13
I4
sg14
I10
sg15
I8
sa(dp5144
g2
g3
(g7
S'Y\xe5\t\xcc/\xb4+@'
p5145
tp5146
Rp5147
sg13
I4
sg14
I11
sg15
I8
sa(dp5148
g2
g3
(g7
S'v5\x9e\x9c\xd8Y+@'
p5149
tp5150
Rp5151
sg13
I4
sg14
I12
sg15
I8
sa(dp5152
g2
g3
(g7
S'{IN\x8d\xa8\x0e,@'
p5153
tp5154
Rp5155
sg13
I4
sg14
I13
sg15
I8
sa(dp5156
g2
g3
(g7
S'\r{\xff\xb5"\xe4+@'
p5157
tp5158
Rp5159
sg13
I4
sg14
I14
sg15
I8
sa(dp5160
g2
g3
(g7
S'\xbf\xe4\x02f(f+@'
p5161
tp5162
Rp5163
sg13
I4
sg14
I15
sg15
I8
sa(dp5164
g2
g3
(g7
S'\xa4BS\x87\xd3\xa9-@'
p5165
tp5166
Rp5167
sg13
I4
sg14
I16
sg15
I8
sa(dp5168
g2
g3
(g7
S'\xa5\xff\xd8\x1d\x8aL,@'
p5169
tp5170
Rp5171
sg13
I4
sg14
I17
sg15
I8
sa(dp5172
g2
g3
(g7
S'6\x0c\xe4\xff\xc1\x88+@'
p5173
tp5174
Rp5175
sg13
I4
sg14
I18
sg15
I8
sa(dp5176
g2
g3
(g7
S'\x90\xc6\xbe\xb6\xe7\x01+@'
p5177
tp5178
Rp5179
sg13
I4
sg14
I19
sg15
I8
sa(dp5180
g2
g3
(g7
S'2\xe2*J\xaaz*@'
p5181
tp5182
Rp5183
sg13
I4
sg14
I20
sg15
I8
sa(dp5184
g2
g3
(g7
S'\xe7m\xf9L\xa2\x16+@'
p5185
tp5186
Rp5187
sg13
I4
sg14
I21
sg15
I8
sa(dp5188
g2
g3
(g7
S'&\x1e!\xc9Li,@'
p5189
tp5190
Rp5191
sg13
I4
sg14
I22
sg15
I8
sa(dp5192
g2
g3
(g7
S'\xdc\xb5\xdf$\xdd\x90,@'
p5193
tp5194
Rp5195
sg13
I4
sg14
I23
sg15
I8
sa(dp5196
g2
g3
(g7
S'\xfc+\xb6B\x82[,@'
p5197
tp5198
Rp5199
sg13
I5
sg14
I0
sg15
I8
sa(dp5200
g2
g3
(g7
S'=\xf7\xcd\x00\xdbw+@'
p5201
tp5202
Rp5203
sg13
I5
sg14
I1
sg15
I8
sa(dp5204
g2
g3
(g7
S'F\x14\xdc6\x04F+@'
p5205
tp5206
Rp5207
sg13
I5
sg14
I2
sg15
I8
sa(dp5208
g2
g3
(g7
S'\xf9\xfbD\x11q\xd0+@'
p5209
tp5210
Rp5211
sg13
I5
sg14
I3
sg15
I8
sa(dp5212
g2
g3
(g7
S'\xf7\xbe\x0b\xcf\x9a5,@'
p5213
tp5214
Rp5215
sg13
I5
sg14
I4
sg15
I8
sa(dp5216
g2
g3
(g7
S'PAbA\xbc\xf4-@'
p5217
tp5218
Rp5219
sg13
I5
sg14
I5
sg15
I8
sa(dp5220
g2
g3
(g7
S'X\x92\xc8-\xeb\xc8.@'
p5221
tp5222
Rp5223
sg13
I5
sg14
I6
sg15
I8
sa(dp5224
g2
g3
(g7
S'V^z\x9c\x1f%-@'
p5225
tp5226
Rp5227
sg13
I5
sg14
I7
sg15
I8
sa(dp5228
g2
g3
(g7
S'q\xb4\xba\x94\xe5\xe6,@'
p5229
tp5230
Rp5231
sg13
I5
sg14
I8
sg15
I8
sa(dp5232
g2
g3
(g7
S'H\xc3\xa9\x93 \x8e+@'
p5233
tp5234
Rp5235
sg13
I5
sg14
I9
sg15
I8
sa(dp5236
g2
g3
(g7
S'\x0f\xa7\xa7R\x0f\xc1+@'
p5237
tp5238
Rp5239
sg13
I5
sg14
I10
sg15
I8
sa(dp5240
g2
g3
(g7
S'\\\xca\x93\x0c|\x19+@'
p5241
tp5242
Rp5243
sg13
I5
sg14
I11
sg15
I8
sa(dp5244
g2
g3
(g7
S'K\x8a.\x18-\xee*@'
p5245
tp5246
Rp5247
sg13
I5
sg14
I12
sg15
I8
sa(dp5248
g2
g3
(g7
S'N\x89(\x06\xf1\xec*@'
p5249
tp5250
Rp5251
sg13
I5
sg14
I13
sg15
I8
sa(dp5252
g2
g3
(g7
S'\x1bsC\xda\xba\xc9*@'
p5253
tp5254
Rp5255
sg13
I5
sg14
I14
sg15
I8
sa(dp5256
g2
g3
(g7
S'?\x0ea\xe9\x81\xe6*@'
p5257
tp5258
Rp5259
sg13
I5
sg14
I15
sg15
I8
sa(dp5260
g2
g3
(g7
S'\xefAEV\x8f\x03+@'
p5261
tp5262
Rp5263
sg13
I5
sg14
I16
sg15
I8
sa(dp5264
g2
g3
(g7
S'\xb81h\xb3c\xb0*@'
p5265
tp5266
Rp5267
sg13
I5
sg14
I17
sg15
I8
sa(dp5268
g2
g3
(g7
S'JM\xb94\xbb\x8c*@'
p5269
tp5270
Rp5271
sg13
I5
sg14
I18
sg15
I8
sa(dp5272
g2
g3
(g7
S'\xea^\xbe=Em*@'
p5273
tp5274
Rp5275
sg13
I5
sg14
I19
sg15
I8
sa(dp5276
g2
g3
(g7
S'\xab\xe9\x97\xcff\xc2+@'
p5277
tp5278
Rp5279
sg13
I5
sg14
I20
sg15
I8
sa(dp5280
g2
g3
(g7
S'\x15\xda\x08 \xd04,@'
p5281
tp5282
Rp5283
sg13
I5
sg14
I21
sg15
I8
sa(dp5284
g2
g3
(g7
S"$'\xae\x96\xa0\xf4,@"
p5285
tp5286
Rp5287
sg13
I5
sg14
I22
sg15
I8
sa(dp5288
g2
g3
(g7
S'\xc6\xa3Y\x84X4-@'
p5289
tp5290
Rp5291
sg13
I5
sg14
I23
sg15
I8
sa(dp5292
g2
g3
(g7
S' t\x83\xe0\xd0\xec,@'
p5293
tp5294
Rp5295
sg13
I6
sg14
I0
sg15
I8
sa(dp5296
g2
g3
(g7
S'\xa3\x82\xf4\xb6\x19$,@'
p5297
tp5298
Rp5299
sg13
I6
sg14
I1
sg15
I8
sa(dp5300
g2
g3
(g7
S'\xb4\xca\x02\x13\x07),@'
p5301
tp5302
Rp5303
sg13
I6
sg14
I2
sg15
I8
sa(dp5304
g2
g3
(g7
S'\xba\xbe\xd8"Lu,@'
p5305
tp5306
Rp5307
sg13
I6
sg14
I3
sg15
I8
sa(dp5308
g2
g3
(g7
S'K\x1c,{+{,@'
p5309
tp5310
Rp5311
sg13
I6
sg14
I4
sg15
I8
sa(dp5312
g2
g3
(g7
S'\xeb\xe9\xbf\x1b7-.@'
p5313
tp5314
Rp5315
sg13
I6
sg14
I5
sg15
I8
sa(dp5316
g2
g3
(g7
S'\xbdh\x153\xcb\xb6.@'
p5317
tp5318
Rp5319
sg13
I6
sg14
I6
sg15
I8
sa(dp5320
g2
g3
(g7
S'P\xb5\xdb\xf4|\xbb-@'
p5321
tp5322
Rp5323
sg13
I6
sg14
I7
sg15
I8
sa(dp5324
g2
g3
(g7
S'\xc2ZY\xfe\x9e\x8b+@'
p5325
tp5326
Rp5327
sg13
I6
sg14
I8
sg15
I8
sa(dp5328
g2
g3
(g7
S'\xe0Bu\x14_9*@'
p5329
tp5330
Rp5331
sg13
I6
sg14
I9
sg15
I8
sa(dp5332
g2
g3
(g7
S'\xd8^*\xb0NH*@'
p5333
tp5334
Rp5335
sg13
I6
sg14
I10
sg15
I8
sa(dp5336
g2
g3
(g7
S'\xe9v\x1f\x99\xe9\x05*@'
p5337
tp5338
Rp5339
sg13
I6
sg14
I11
sg15
I8
sa(dp5340
g2
g3
(g7
S'\x86\xc7a\xdf\x01\x1e*@'
p5341
tp5342
Rp5343
sg13
I6
sg14
I12
sg15
I8
sa(dp5344
g2
g3
(g7
S'\x1f\xe3\x1b\xc31\xba*@'
p5345
tp5346
Rp5347
sg13
I6
sg14
I13
sg15
I8
sa(dp5348
g2
g3
(g7
S'\xe6:;}O\xce*@'
p5349
tp5350
Rp5351
sg13
I6
sg14
I14
sg15
I8
sa(dp5352
g2
g3
(g7
S'\xebR\x80\xc7\x9e\xff*@'
p5353
tp5354
Rp5355
sg13
I6
sg14
I15
sg15
I8
sa(dp5356
g2
g3
(g7
S'\xa4L\t.=\x88+@'
p5357
tp5358
Rp5359
sg13
I6
sg14
I16
sg15
I8
sa(dp5360
g2
g3
(g7
S'\xea\x19\\\xfc\x9b\x1e+@'
p5361
tp5362
Rp5363
sg13
I6
sg14
I17
sg15
I8
sa(dp5364
g2
g3
(g7
S'\x8aB\xdb\xc3\x8aW*@'
p5365
tp5366
Rp5367
sg13
I6
sg14
I18
sg15
I8
sa(dp5368
g2
g3
(g7
S'\xb6\xd5\xa3\x04\xb7 *@'
p5369
tp5370
Rp5371
sg13
I6
sg14
I19
sg15
I8
sa(dp5372
g2
g3
(g7
S'\xe1F\r\xb5g\xd4*@'
p5373
tp5374
Rp5375
sg13
I6
sg14
I20
sg15
I8
sa(dp5376
g2
g3
(g7
S'el\x80`\xf6++@'
p5377
tp5378
Rp5379
sg13
I6
sg14
I21
sg15
I8
sa(dp5380
g2
g3
(g7
S'\x12\xe0\xd6*\xfeH+@'
p5381
tp5382
Rp5383
sg13
I6
sg14
I22
sg15
I8
sa(dp5384
g2
g3
(g7
S'J\x17\xc6%\x0b\xb8+@'
p5385
tp5386
Rp5387
sg13
I6
sg14
I23
sg15
I8
sa(dp5388
g2
g3
(g7
S'}M\xd9>\x92Q+@'
p5389
tp5390
Rp5391
sg13
I0
sg14
I0
sg15
I9
sa(dp5392
g2
g3
(g7
S"'\x81\n\x92\xd1k*@"
p5393
tp5394
Rp5395
sg13
I0
sg14
I1
sg15
I9
sa(dp5396
g2
g3
(g7
S'~}\xc1\xbc\xcf\x18*@'
p5397
tp5398
Rp5399
sg13
I0
sg14
I2
sg15
I9
sa(dp5400
g2
g3
(g7
S'[\xadS\x03\x8b\x1a+@'
p5401
tp5402
Rp5403
sg13
I0
sg14
I3
sg15
I9
sa(dp5404
g2
g3
(g7
S'\x8d\x14\xa1\xabL\xa3.@'
p5405
tp5406
Rp5407
sg13
I0
sg14
I4
sg15
I9
sa(dp5408
g2
g3
(g7
S'\xca\xaf\x19Z\xf5[1@'
p5409
tp5410
Rp5411
sg13
I0
sg14
I5
sg15
I9
sa(dp5412
g2
g3
(g7
S'/\xc9{K\x8bN/@'
p5413
tp5414
Rp5415
sg13
I0
sg14
I6
sg15
I9
sa(dp5416
g2
g3
(g7
S'\x93\x8c\xb3\xf3\xa6v-@'
p5417
tp5418
Rp5419
sg13
I0
sg14
I7
sg15
I9
sa(dp5420
g2
g3
(g7
S'\xcc-\xaea\xb6\xbc,@'
p5421
tp5422
Rp5423
sg13
I0
sg14
I8
sg15
I9
sa(dp5424
g2
g3
(g7
S'\xb0\x9b \xad_(,@'
p5425
tp5426
Rp5427
sg13
I0
sg14
I9
sg15
I9
sa(dp5428
g2
g3
(g7
S'<v\x03\xb4\xf6\xd7+@'
p5429
tp5430
Rp5431
sg13
I0
sg14
I10
sg15
I9
sa(dp5432
g2
g3
(g7
S'\x1d\xa4\xcdO\xc0r+@'
p5433
tp5434
Rp5435
sg13
I0
sg14
I11
sg15
I9
sa(dp5436
g2
g3
(g7
S'\xb54\x16ys<+@'
p5437
tp5438
Rp5439
sg13
I0
sg14
I12
sg15
I9
sa(dp5440
g2
g3
(g7
S'\xd6_\x01\xbd\xcb\xca*@'
p5441
tp5442
Rp5443
sg13
I0
sg14
I13
sg15
I9
sa(dp5444
g2
g3
(g7
S'\xce\x0e\x91\xf8\x0b\xd9*@'
p5445
tp5446
Rp5447
sg13
I0
sg14
I14
sg15
I9
sa(dp5448
g2
g3
(g7
S'\xde\xf3\xa2\xe7\xdf!+@'
p5449
tp5450
Rp5451
sg13
I0
sg14
I15
sg15
I9
sa(dp5452
g2
g3
(g7
S'd)\xed\x87\x05\xf2+@'
p5453
tp5454
Rp5455
sg13
I0
sg14
I16
sg15
I9
sa(dp5456
g2
g3
(g7
S'\xf0l\xec\x99z\x9d+@'
p5457
tp5458
Rp5459
sg13
I0
sg14
I17
sg15
I9
sa(dp5460
g2
g3
(g7
S'\x06A8"5_*@'
p5461
tp5462
Rp5463
sg13
I0
sg14
I18
sg15
I9
sa(dp5464
g2
g3
(g7
S'\x11\xea&l\x1a\xf1)@'
p5465
tp5466
Rp5467
sg13
I0
sg14
I19
sg15
I9
sa(dp5468
g2
g3
(g7
S'\x1b|lZ\xdc\xf6)@'
p5469
tp5470
Rp5471
sg13
I0
sg14
I20
sg15
I9
sa(dp5472
g2
g3
(g7
S'\xf9\xa7\xc1M\xd29+@'
p5473
tp5474
Rp5475
sg13
I0
sg14
I21
sg15
I9
sa(dp5476
g2
g3
(g7
S'\x94\xeaK\xdf\x928+@'
p5477
tp5478
Rp5479
sg13
I0
sg14
I22
sg15
I9
sa(dp5480
g2
g3
(g7
S'\x8b\xe80\xe7\x94\xf6*@'
p5481
tp5482
Rp5483
sg13
I0
sg14
I23
sg15
I9
sa(dp5484
g2
g3
(g7
S'gq\x8f;\x86f*@'
p5485
tp5486
Rp5487
sg13
I1
sg14
I0
sg15
I9
sa(dp5488
g2
g3
(g7
S'=\x9d\x1b/\x1c\xa9(@'
p5489
tp5490
Rp5491
sg13
I1
sg14
I1
sg15
I9
sa(dp5492
g2
g3
(g7
S'/\xaef\x01\xae\n)@'
p5493
tp5494
Rp5495
sg13
I1
sg14
I2
sg15
I9
sa(dp5496
g2
g3
(g7
S'\x8c8>Q\x07g)@'
p5497
tp5498
Rp5499
sg13
I1
sg14
I3
sg15
I9
sa(dp5500
g2
g3
(g7
S'\xd2\xffz\xdc\x02*.@'
p5501
tp5502
Rp5503
sg13
I1
sg14
I4
sg15
I9
sa(dp5504
g2
g3
(g7
S'\xef\xf1%\x0eX;1@'
p5505
tp5506
Rp5507
sg13
I1
sg14
I5
sg15
I9
sa(dp5508
g2
g3
(g7
S'Y\xc6t\xce3\xed.@'
p5509
tp5510
Rp5511
sg13
I1
sg14
I6
sg15
I9
sa(dp5512
g2
g3
(g7
S'}\xed\xe3Fl\xa6+@'
p5513
tp5514
Rp5515
sg13
I1
sg14
I7
sg15
I9
sa(dp5516
g2
g3
(g7
S'I\xa0\x84\xe5\x13\x96+@'
p5517
tp5518
Rp5519
sg13
I1
sg14
I8
sg15
I9
sa(dp5520
g2
g3
(g7
S'\xc8?\x11-\xbf\xc8+@'
p5521
tp5522
Rp5523
sg13
I1
sg14
I9
sg15
I9
sa(dp5524
g2
g3
(g7
S'\xbb\xc3\xc8\xbe\xc6A+@'
p5525
tp5526
Rp5527
sg13
I1
sg14
I10
sg15
I9
sa(dp5528
g2
g3
(g7
S'\x98\x14a\xcb\x92\xb9*@'
p5529
tp5530
Rp5531
sg13
I1
sg14
I11
sg15
I9
sa(dp5532
g2
g3
(g7
S'y\xea\x10\xf0\x91\xa9*@'
p5533
tp5534
Rp5535
sg13
I1
sg14
I12
sg15
I9
sa(dp5536
g2
g3
(g7
S'\xa0\xad\xc1\xe6\xea\xf1*@'
p5537
tp5538
Rp5539
sg13
I1
sg14
I13
sg15
I9
sa(dp5540
g2
g3
(g7
S'\xd2\x84\x9e\xf0\x9f\xf6*@'
p5541
tp5542
Rp5543
sg13
I1
sg14
I14
sg15
I9
sa(dp5544
g2
g3
(g7
S'\x05\x85\x94C\x16\xdc*@'
p5545
tp5546
Rp5547
sg13
I1
sg14
I15
sg15
I9
sa(dp5548
g2
g3
(g7
S'I\x86\xa7@\xd2S,@'
p5549
tp5550
Rp5551
sg13
I1
sg14
I16
sg15
I9
sa(dp5552
g2
g3
(g7
S' \xdc\xb1\xfe\x00U+@'
p5553
tp5554
Rp5555
sg13
I1
sg14
I17
sg15
I9
sa(dp5556
g2
g3
(g7
S'\xe3\xb2\x01\t\xd7$*@'
p5557
tp5558
Rp5559
sg13
I1
sg14
I18
sg15
I9
sa(dp5560
g2
g3
(g7
S'\xf7\x13\x88\xad\xa9\x00*@'
p5561
tp5562
Rp5563
sg13
I1
sg14
I19
sg15
I9
sa(dp5564
g2
g3
(g7
S'\xa4]\xd2\xd1C6)@'
p5565
tp5566
Rp5567
sg13
I1
sg14
I20
sg15
I9
sa(dp5568
g2
g3
(g7
S'x\xbdDm\x17\x9d*@'
p5569
tp5570
Rp5571
sg13
I1
sg14
I21
sg15
I9
sa(dp5572
g2
g3
(g7
S'\xe50\x96\xd3\xd3E,@'
p5573
tp5574
Rp5575
sg13
I1
sg14
I22
sg15
I9
sa(dp5576
g2
g3
(g7
S'\x84\xe2\x85\xb0rI+@'
p5577
tp5578
Rp5579
sg13
I1
sg14
I23
sg15
I9
sa(dp5580
g2
g3
(g7
S'\xce\x90\x9cs\x92 *@'
p5581
tp5582
Rp5583
sg13
I2
sg14
I0
sg15
I9
sa(dp5584
g2
g3
(g7
S'/_\x9a[Pi)@'
p5585
tp5586
Rp5587
sg13
I2
sg14
I1
sg15
I9
sa(dp5588
g2
g3
(g7
S'dgE#\x01_(@'
p5589
tp5590
Rp5591
sg13
I2
sg14
I2
sg15
I9
sa(dp5592
g2
g3
(g7
S'3\x03\xb8\xfe\xd8\xf1(@'
p5593
tp5594
Rp5595
sg13
I2
sg14
I3
sg15
I9
sa(dp5596
g2
g3
(g7
S'\xf9\xd0\xccX\x12\xf0,@'
p5597
tp5598
Rp5599
sg13
I2
sg14
I4
sg15
I9
sa(dp5600
g2
g3
(g7
S',\x957Cc%1@'
p5601
tp5602
Rp5603
sg13
I2
sg14
I5
sg15
I9
sa(dp5604
g2
g3
(g7
S'h\x7fD\n(q/@'
p5605
tp5606
Rp5607
sg13
I2
sg14
I6
sg15
I9
sa(dp5608
g2
g3
(g7
S'\x0e\x8eK\x11\x00m,@'
p5609
tp5610
Rp5611
sg13
I2
sg14
I7
sg15
I9
sa(dp5612
g2
g3
(g7
S'X\xc0\x99LJ(,@'
p5613
tp5614
Rp5615
sg13
I2
sg14
I8
sg15
I9
sa(dp5616
g2
g3
(g7
S'\xd5\xb2\xa6e\x9a<,@'
p5617
tp5618
Rp5619
sg13
I2
sg14
I9
sg15
I9
sa(dp5620
g2
g3
(g7
S'\xc98u\xa1*\x13+@'
p5621
tp5622
Rp5623
sg13
I2
sg14
I10
sg15
I9
sa(dp5624
g2
g3
(g7
S'\xca\xc5\xe83a\xe5*@'
p5625
tp5626
Rp5627
sg13
I2
sg14
I11
sg15
I9
sa(dp5628
g2
g3
(g7
S'\x07\xd9(i\xc2\xe8*@'
p5629
tp5630
Rp5631
sg13
I2
sg14
I12
sg15
I9
sa(dp5632
g2
g3
(g7
S'bg\x1e}\n]*@'
p5633
tp5634
Rp5635
sg13
I2
sg14
I13
sg15
I9
sa(dp5636
g2
g3
(g7
S'\xeam\x91J\x8a\xfa*@'
p5637
tp5638
Rp5639
sg13
I2
sg14
I14
sg15
I9
sa(dp5640
g2
g3
(g7
S'\xc8\xf1\x91Yz}+@'
p5641
tp5642
Rp5643
sg13
I2
sg14
I15
sg15
I9
sa(dp5644
g2
g3
(g7
S'J? \xc4\xa91-@'
p5645
tp5646
Rp5647
sg13
I2
sg14
I16
sg15
I9
sa(dp5648
g2
g3
(g7
S'n\xa4\xafO\x9d\xf6+@'
p5649
tp5650
Rp5651
sg13
I2
sg14
I17
sg15
I9
sa(dp5652
g2
g3
(g7
S'\xf6\xea\x93\x94L\xcf*@'
p5653
tp5654
Rp5655
sg13
I2
sg14
I18
sg15
I9
sa(dp5656
g2
g3
(g7
S'7\x9e+\x02\t\xb4*@'
p5657
tp5658
Rp5659
sg13
I2
sg14
I19
sg15
I9
sa(dp5660
g2
g3
(g7
S'\xef\xef\x96n\x02\xd8)@'
p5661
tp5662
Rp5663
sg13
I2
sg14
I20
sg15
I9
sa(dp5664
g2
g3
(g7
S'\x0eS\xd2\x9e\x89\xa5+@'
p5665
tp5666
Rp5667
sg13
I2
sg14
I21
sg15
I9
sa(dp5668
g2
g3
(g7
S'\xd6\x9b\xff)\xf6\xae,@'
p5669
tp5670
Rp5671
sg13
I2
sg14
I22
sg15
I9
sa(dp5672
g2
g3
(g7
S'\x96\x8f\xca\xb1\xa7\xcf+@'
p5673
tp5674
Rp5675
sg13
I2
sg14
I23
sg15
I9
sa(dp5676
g2
g3
(g7
S'1\x00?\xa7\xffe*@'
p5677
tp5678
Rp5679
sg13
I3
sg14
I0
sg15
I9
sa(dp5680
g2
g3
(g7
S'>H\x13\xe0,\xb1(@'
p5681
tp5682
Rp5683
sg13
I3
sg14
I1
sg15
I9
sa(dp5684
g2
g3
(g7
S'\xbe\x9f\x0e\xa7\x80\x81(@'
p5685
tp5686
Rp5687
sg13
I3
sg14
I2
sg15
I9
sa(dp5688
g2
g3
(g7
S'6\xd1\x18\xc7\xaa\x1c*@'
p5689
tp5690
Rp5691
sg13
I3
sg14
I3
sg15
I9
sa(dp5692
g2
g3
(g7
S'\xfaE\x9b\xf9\x11\x05.@'
p5693
tp5694
Rp5695
sg13
I3
sg14
I4
sg15
I9
sa(dp5696
g2
g3
(g7
S'{\xbd9\xf0\xbe\xe90@'
p5697
tp5698
Rp5699
sg13
I3
sg14
I5
sg15
I9
sa(dp5700
g2
g3
(g7
S'\xf0\xd3N\xb4\xa890@'
p5701
tp5702
Rp5703
sg13
I3
sg14
I6
sg15
I9
sa(dp5704
g2
g3
(g7
S'\x1e\xdf\xf3\xdd\xb5\x0b-@'
p5705
tp5706
Rp5707
sg13
I3
sg14
I7
sg15
I9
sa(dp5708
g2
g3
(g7
S'Z(\xc9\xdb\x1e\xee,@'
p5709
tp5710
Rp5711
sg13
I3
sg14
I8
sg15
I9
sa(dp5712
g2
g3
(g7
S'\xe3\x7f\xbcl\xcbX,@'
p5713
tp5714
Rp5715
sg13
I3
sg14
I9
sg15
I9
sa(dp5716
g2
g3
(g7
S'\xde\xc0\x11\xda\x84\xf0+@'
p5717
tp5718
Rp5719
sg13
I3
sg14
I10
sg15
I9
sa(dp5720
g2
g3
(g7
S'\xf7\xb4\xaa$\xe5\xda+@'
p5721
tp5722
Rp5723
sg13
I3
sg14
I11
sg15
I9
sa(dp5724
g2
g3
(g7
S'P+i\xfc\x8e\x95+@'
p5725
tp5726
Rp5727
sg13
I3
sg14
I12
sg15
I9
sa(dp5728
g2
g3
(g7
S']\x81\xcf\xc00\x9b+@'
p5729
tp5730
Rp5731
sg13
I3
sg14
I13
sg15
I9
sa(dp5732
g2
g3
(g7
S'u\x95\xa7!lX+@'
p5733
tp5734
Rp5735
sg13
I3
sg14
I14
sg15
I9
sa(dp5736
g2
g3
(g7
S'\x96\xb4m8\xd0\xd0+@'
p5737
tp5738
Rp5739
sg13
I3
sg14
I15
sg15
I9
sa(dp5740
g2
g3
(g7
S'\xdb\x94\x1a\x11X+-@'
p5741
tp5742
Rp5743
sg13
I3
sg14
I16
sg15
I9
sa(dp5744
g2
g3
(g7
S'{>0\x9e\xd4\xa7+@'
p5745
tp5746
Rp5747
sg13
I3
sg14
I17
sg15
I9
sa(dp5748
g2
g3
(g7
S'k\xee\xe0\x1a\x16\xcd*@'
p5749
tp5750
Rp5751
sg13
I3
sg14
I18
sg15
I9
sa(dp5752
g2
g3
(g7
S'\xac\x9f|\x84\x89z*@'
p5753
tp5754
Rp5755
sg13
I3
sg14
I19
sg15
I9
sa(dp5756
g2
g3
(g7
S'\t>\xa3\x16\x11\xb5)@'
p5757
tp5758
Rp5759
sg13
I3
sg14
I20
sg15
I9
sa(dp5760
g2
g3
(g7
S'\xe5wQ\x92\xb9\x16*@'
p5761
tp5762
Rp5763
sg13
I3
sg14
I21
sg15
I9
sa(dp5764
g2
g3
(g7
S'\xfe\xf7s\xc2Y\x1b+@'
p5765
tp5766
Rp5767
sg13
I3
sg14
I22
sg15
I9
sa(dp5768
g2
g3
(g7
S'\x1dC"\xf6\x99\x01+@'
p5769
tp5770
Rp5771
sg13
I3
sg14
I23
sg15
I9
sa(dp5772
g2
g3
(g7
S'\x83\x18V"\xb1\x04+@'
p5773
tp5774
Rp5775
sg13
I4
sg14
I0
sg15
I9
sa(dp5776
g2
g3
(g7
S'\xf1\x0c.\xbc\xbbT)@'
p5777
tp5778
Rp5779
sg13
I4
sg14
I1
sg15
I9
sa(dp5780
g2
g3
(g7
S'\xeaS\x87I\xbc\xcb)@'
p5781
tp5782
Rp5783
sg13
I4
sg14
I2
sg15
I9
sa(dp5784
g2
g3
(g7
S'\x1b\x08h}\xc5\xdf*@'
p5785
tp5786
Rp5787
sg13
I4
sg14
I3
sg15
I9
sa(dp5788
g2
g3
(g7
S'\xe9\x82\x82T\xa0\xde-@'
p5789
tp5790
Rp5791
sg13
I4
sg14
I4
sg15
I9
sa(dp5792
g2
g3
(g7
S'u\xcb\t-xw1@'
p5793
tp5794
Rp5795
sg13
I4
sg14
I5
sg15
I9
sa(dp5796
g2
g3
(g7
S'\x95F\xf7q\xcc\xb10@'
p5797
tp5798
Rp5799
sg13
I4
sg14
I6
sg15
I9
sa(dp5800
g2
g3
(g7
S's!\x06\xc7@\x01-@'
p5801
tp5802
Rp5803
sg13
I4
sg14
I7
sg15
I9
sa(dp5804
g2
g3
(g7
S'\x8c\xaf\xaf\xf1\x04u,@'
p5805
tp5806
Rp5807
sg13
I4
sg14
I8
sg15
I9
sa(dp5808
g2
g3
(g7
S'\xa2\xc4\x0fe!\xd6+@'
p5809
tp5810
Rp5811
sg13
I4
sg14
I9
sg15
I9
sa(dp5812
g2
g3
(g7
S'z\xdf\xf9\x92\xe1\x99+@'
p5813
tp5814
Rp5815
sg13
I4
sg14
I10
sg15
I9
sa(dp5816
g2
g3
(g7
S'\xea\xb3U\x82\xc5\xbf+@'
p5817
tp5818
Rp5819
sg13
I4
sg14
I11
sg15
I9
sa(dp5820
g2
g3
(g7
S'\xe9P\xa8<\xeb\x10+@'
p5821
tp5822
Rp5823
sg13
I4
sg14
I12
sg15
I9
sa(dp5824
g2
g3
(g7
S'\xf1\xeb;+t\xfc*@'
p5825
tp5826
Rp5827
sg13
I4
sg14
I13
sg15
I9
sa(dp5828
g2
g3
(g7
S'\x03\\\xd9x\x84\xaa+@'
p5829
tp5830
Rp5831
sg13
I4
sg14
I14
sg15
I9
sa(dp5832
g2
g3
(g7
S'^nV\x83\xfa\x80,@'
p5833
tp5834
Rp5835
sg13
I4
sg14
I15
sg15
I9
sa(dp5836
g2
g3
(g7
S'\xe3\xf0\xb4\xe7\xd9z-@'
p5837
tp5838
Rp5839
sg13
I4
sg14
I16
sg15
I9
sa(dp5840
g2
g3
(g7
S'\xa0sA&g\x90,@'
p5841
tp5842
Rp5843
sg13
I4
sg14
I17
sg15
I9
sa(dp5844
g2
g3
(g7
S'\xe7"A\\\x82\x7f+@'
p5845
tp5846
Rp5847
sg13
I4
sg14
I18
sg15
I9
sa(dp5848
g2
g3
(g7
S'L_\x8f\xc4te+@'
p5849
tp5850
Rp5851
sg13
I4
sg14
I19
sg15
I9
sa(dp5852
g2
g3
(g7
S'\xcc\xa3\x81b*<*@'
p5853
tp5854
Rp5855
sg13
I4
sg14
I20
sg15
I9
sa(dp5856
g2
g3
(g7
S' \x1d\xc2n\xc3U+@'
p5857
tp5858
Rp5859
sg13
I4
sg14
I21
sg15
I9
sa(dp5860
g2
g3
(g7
S'\x12=\xb58\xc9\x02,@'
p5861
tp5862
Rp5863
sg13
I4
sg14
I22
sg15
I9
sa(dp5864
g2
g3
(g7
S'\x86\xd2\xf2\x90\x19\x92,@'
p5865
tp5866
Rp5867
sg13
I4
sg14
I23
sg15
I9
sa(dp5868
g2
g3
(g7
S'/\xd4K\x8a\xd3[,@'
p5869
tp5870
Rp5871
sg13
I5
sg14
I0
sg15
I9
sa(dp5872
g2
g3
(g7
S'/\xb8\xc2\xcaJ\x9c+@'
p5873
tp5874
Rp5875
sg13
I5
sg14
I1
sg15
I9
sa(dp5876
g2
g3
(g7
S'\x114\xc6\x94\xd9W+@'
p5877
tp5878
Rp5879
sg13
I5
sg14
I2
sg15
I9
sa(dp5880
g2
g3
(g7
S'\xd5\xa2\x14\xda \xe8+@'
p5881
tp5882
Rp5883
sg13
I5
sg14
I3
sg15
I9
sa(dp5884
g2
g3
(g7
S'\xa3PC\x91t\x95,@'
p5885
tp5886
Rp5887
sg13
I5
sg14
I4
sg15
I9
sa(dp5888
g2
g3
(g7
S'W\x8b7\xad\xc2:.@'
p5889
tp5890
Rp5891
sg13
I5
sg14
I5
sg15
I9
sa(dp5892
g2
g3
(g7
S'\xbaS\x8d\xcf \xd0/@'
p5893
tp5894
Rp5895
sg13
I5
sg14
I6
sg15
I9
sa(dp5896
g2
g3
(g7
S'\x96\xdc>J\xb5\x8d.@'
p5897
tp5898
Rp5899
sg13
I5
sg14
I7
sg15
I9
sa(dp5900
g2
g3
(g7
S'\n\xfbh\x92U\xdd,@'
p5901
tp5902
Rp5903
sg13
I5
sg14
I8
sg15
I9
sa(dp5904
g2
g3
(g7
S'\x11\x189o\xb9\x93+@'
p5905
tp5906
Rp5907
sg13
I5
sg14
I9
sg15
I9
sa(dp5908
g2
g3
(g7
S'\xf0\x16\x0eef\xa3*@'
p5909
tp5910
Rp5911
sg13
I5
sg14
I10
sg15
I9
sa(dp5912
g2
g3
(g7
S'\xcc\x1e\xb7\x1c\x9c\xd7*@'
p5913
tp5914
Rp5915
sg13
I5
sg14
I11
sg15
I9
sa(dp5916
g2
g3
(g7
S'\x15Js\x05\xfc0+@'
p5917
tp5918
Rp5919
sg13
I5
sg14
I12
sg15
I9
sa(dp5920
g2
g3
(g7
S'\x9fm\x80\x9e\x9a\xca*@'
p5921
tp5922
Rp5923
sg13
I5
sg14
I13
sg15
I9
sa(dp5924
g2
g3
(g7
S'\xab\xf8\xd7\xd8lu+@'
p5925
tp5926
Rp5927
sg13
I5
sg14
I14
sg15
I9
sa(dp5928
g2
g3
(g7
S'\xd3:\xa6\xca\x99K+@'
p5929
tp5930
Rp5931
sg13
I5
sg14
I15
sg15
I9
sa(dp5932
g2
g3
(g7
S'\xf4\xb9;\xf4\xaa\x8a+@'
p5933
tp5934
Rp5935
sg13
I5
sg14
I16
sg15
I9
sa(dp5936
g2
g3
(g7
S'h\xe2\xd7\x82.7+@'
p5937
tp5938
Rp5939
sg13
I5
sg14
I17
sg15
I9
sa(dp5940
g2
g3
(g7
S'$p\x8f\x1b^\x8d+@'
p5941
tp5942
Rp5943
sg13
I5
sg14
I18
sg15
I9
sa(dp5944
g2
g3
(g7
S'\xa5\n\x1algD+@'
p5945
tp5946
Rp5947
sg13
I5
sg14
I19
sg15
I9
sa(dp5948
g2
g3
(g7
S'\x9e\x1fH\xcf\xeeS+@'
p5949
tp5950
Rp5951
sg13
I5
sg14
I20
sg15
I9
sa(dp5952
g2
g3
(g7
S'\x97\xb3\xc9%N\xc0+@'
p5953
tp5954
Rp5955
sg13
I5
sg14
I21
sg15
I9
sa(dp5956
g2
g3
(g7
S'\xfb\x8aN\xe8/R-@'
p5957
tp5958
Rp5959
sg13
I5
sg14
I22
sg15
I9
sa(dp5960
g2
g3
(g7
S'\xf9\xacRz\x03\xde-@'
p5961
tp5962
Rp5963
sg13
I5
sg14
I23
sg15
I9
sa(dp5964
g2
g3
(g7
S'#)&\xe1\xa3\xc0,@'
p5965
tp5966
Rp5967
sg13
I6
sg14
I0
sg15
I9
sa(dp5968
g2
g3
(g7
S'|0\x93!\x9c\xd0+@'
p5969
tp5970
Rp5971
sg13
I6
sg14
I1
sg15
I9
sa(dp5972
g2
g3
(g7
S'\xc1\xad\x91\xa5(\xd0+@'
p5973
tp5974
Rp5975
sg13
I6
sg14
I2
sg15
I9
sa(dp5976
g2
g3
(g7
S'>\xee\xda\x0bv\x9c,@'
p5977
tp5978
Rp5979
sg13
I6
sg14
I3
sg15
I9
sa(dp5980
g2
g3
(g7
S's3_>\xe7\x1a-@'
p5981
tp5982
Rp5983
sg13
I6
sg14
I4
sg15
I9
sa(dp5984
g2
g3
(g7
S'\x0e\xb7\xc0X7N.@'
p5985
tp5986
Rp5987
sg13
I6
sg14
I5
sg15
I9
sa(dp5988
g2
g3
(g7
S'\x8e\xce\x80\xaeR//@'
p5989
tp5990
Rp5991
sg13
I6
sg14
I6
sg15
I9
sa(dp5992
g2
g3
(g7
S'<;Fz\xe9@.@'
p5993
tp5994
Rp5995
sg13
I6
sg14
I7
sg15
I9
sa(dp5996
g2
g3
(g7
S'\xaa\xb9{\x9do\x1f-@'
p5997
tp5998
Rp5999
sg13
I6
sg14
I8
sg15
I9
sa(dp6000
g2
g3
(g7
S't\xcc\x83>\x96\x94+@'
p6001
tp6002
Rp6003
sg13
I6
sg14
I9
sg15
I9
sa(dp6004
g2
g3
(g7
S'\x9f\x8d\xd1\xa7\xbf\xb3*@'
p6005
tp6006
Rp6007
sg13
I6
sg14
I10
sg15
I9
sa(dp6008
g2
g3
(g7
S'S\xea\x9f1M\xde*@'
p6009
tp6010
Rp6011
sg13
I6
sg14
I11
sg15
I9
sa(dp6012
g2
g3
(g7
S'\xb1\x88\xd7\xdf\xc6\x11+@'
p6013
tp6014
Rp6015
sg13
I6
sg14
I12
sg15
I9
sa(dp6016
g2
g3
(g7
S'}\xf9\x9f\xf6\xc5:+@'
p6017
tp6018
Rp6019
sg13
I6
sg14
I13
sg15
I9
sa(dp6020
g2
g3
(g7
S'w\xd2\xc5\x94j\xb4+@'
p6021
tp6022
Rp6023
sg13
I6
sg14
I14
sg15
I9
sa(dp6024
g2
g3
(g7
S'`\xa85OF\xe0+@'
p6025
tp6026
Rp6027
sg13
I6
sg14
I15
sg15
I9
sa(dp6028
g2
g3
(g7
S'\xad\x16`D\xce\xdb+@'
p6029
tp6030
Rp6031
sg13
I6
sg14
I16
sg15
I9
sa(dp6032
g2
g3
(g7
S'\xd9\xfai\x14\xb5f+@'
p6033
tp6034
Rp6035
sg13
I6
sg14
I17
sg15
I9
sa(dp6036
g2
g3
(g7
S'\xe3T\xf0z\xe2\x14+@'
p6037
tp6038
Rp6039
sg13
I6
sg14
I18
sg15
I9
sa(dp6040
g2
g3
(g7
S'\xc6\xbeE\x9d\xc4\xa4*@'
p6041
tp6042
Rp6043
sg13
I6
sg14
I19
sg15
I9
sa(dp6044
g2
g3
(g7
S'u\x83\x8ckw\xea*@'
p6045
tp6046
Rp6047
sg13
I6
sg14
I20
sg15
I9
sa(dp6048
g2
g3
(g7
S'\xf7\xa3\x97\xbd\x99\xfb*@'
p6049
tp6050
Rp6051
sg13
I6
sg14
I21
sg15
I9
sa(dp6052
g2
g3
(g7
S'\x16\x05\xd4{Yw,@'
p6053
tp6054
Rp6055
sg13
I6
sg14
I22
sg15
I9
sa(dp6056
g2
g3
(g7
S'h.`N\x14i,@'
p6057
tp6058
Rp6059
sg13
I6
sg14
I23
sg15
I9
sa(dp6060
g2
g3
(g7
S'/4i\x15\x93\x96)@'
p6061
tp6062
Rp6063
sg13
I0
sg14
I0
sg15
I10
sa(dp6064
g2
g3
(g7
S'\xd1.9\xcd1\xd2(@'
p6065
tp6066
Rp6067
sg13
I0
sg14
I1
sg15
I10
sa(dp6068
g2
g3
(g7
S'\x19\xa4\x0c|\x10\xd1(@'
p6069
tp6070
Rp6071
sg13
I0
sg14
I2
sg15
I10
sa(dp6072
g2
g3
(g7
S"\xf4'^\x83g\xde)@"
p6073
tp6074
Rp6075
sg13
I0
sg14
I3
sg15
I10
sa(dp6076
g2
g3
(g7
S'|\t\xab\x1c\xdf\n.@'
p6077
tp6078
Rp6079
sg13
I0
sg14
I4
sg15
I10
sa(dp6080
g2
g3
(g7
S'!\x86`\xe5\x81\xc21@'
p6081
tp6082
Rp6083
sg13
I0
sg14
I5
sg15
I10
sa(dp6084
g2
g3
(g7
S'%\xf1n\x8b\x04\xd30@'
p6085
tp6086
Rp6087
sg13
I0
sg14
I6
sg15
I10
sa(dp6088
g2
g3
(g7
S'w\x10\xff\xf5c\xc8,@'
p6089
tp6090
Rp6091
sg13
I0
sg14
I7
sg15
I10
sa(dp6092
g2
g3
(g7
S'\xf1\xeef\x08\x8bm+@'
p6093
tp6094
Rp6095
sg13
I0
sg14
I8
sg15
I10
sa(dp6096
g2
g3
(g7
S'{\xd6\xfd\xb1k\xa9+@'
p6097
tp6098
Rp6099
sg13
I0
sg14
I9
sg15
I10
sa(dp6100
g2
g3
(g7
S'\xbc\x93\x03\x93O\x9c*@'
p6101
tp6102
Rp6103
sg13
I0
sg14
I10
sg15
I10
sa(dp6104
g2
g3
(g7
S'\x9e\x11l=^q*@'
p6105
tp6106
Rp6107
sg13
I0
sg14
I11
sg15
I10
sa(dp6108
g2
g3
(g7
S'\xf0\x07\xd0\xe91\xcf*@'
p6109
tp6110
Rp6111
sg13
I0
sg14
I12
sg15
I10
sa(dp6112
g2
g3
(g7
S'q,\x14\xc25\xbe*@'
p6113
tp6114
Rp6115
sg13
I0
sg14
I13
sg15
I10
sa(dp6116
g2
g3
(g7
S'\xb7\x1e\xb0\x0f\x82q+@'
p6117
tp6118
Rp6119
sg13
I0
sg14
I14
sg15
I10
sa(dp6120
g2
g3
(g7
S'D\xe9\xc1\xcb\x8a\xe6*@'
p6121
tp6122
Rp6123
sg13
I0
sg14
I15
sg15
I10
sa(dp6124
g2
g3
(g7
S'\x13\x93\xb8e\xe9),@'
p6125
tp6126
Rp6127
sg13
I0
sg14
I16
sg15
I10
sa(dp6128
g2
g3
(g7
S'\x82n^\xad\x1d\x14+@'
p6129
tp6130
Rp6131
sg13
I0
sg14
I17
sg15
I10
sa(dp6132
g2
g3
(g7
S'\x08\xdb\xd8H:\xe1)@'
p6133
tp6134
Rp6135
sg13
I0
sg14
I18
sg15
I10
sa(dp6136
g2
g3
(g7
S'>\xfevw\x80\x95)@'
p6137
tp6138
Rp6139
sg13
I0
sg14
I19
sg15
I10
sa(dp6140
g2
g3
(g7
S'o\xa0\xc8\x9e\xa8\xb8(@'
p6141
tp6142
Rp6143
sg13
I0
sg14
I20
sg15
I10
sa(dp6144
g2
g3
(g7
S'\x0c\x7f\xaec\xedU)@'
p6145
tp6146
Rp6147
sg13
I0
sg14
I21
sg15
I10
sa(dp6148
g2
g3
(g7
S'\xd2\xd6<,\xc2\x0e*@'
p6149
tp6150
Rp6151
sg13
I0
sg14
I22
sg15
I10
sa(dp6152
g2
g3
(g7
S"\xc3#\x02'\x9d\x08*@"
p6153
tp6154
Rp6155
sg13
I0
sg14
I23
sg15
I10
sa(dp6156
g2
g3
(g7
S'\x99\xde\xfd\x91o\x86)@'
p6157
tp6158
Rp6159
sg13
I1
sg14
I0
sg15
I10
sa(dp6160
g2
g3
(g7
S'\x1f\xb9U\x07\x887)@'
p6161
tp6162
Rp6163
sg13
I1
sg14
I1
sg15
I10
sa(dp6164
g2
g3
(g7
S"C'\x01#IS)@"
p6165
tp6166
Rp6167
sg13
I1
sg14
I2
sg15
I10
sa(dp6168
g2
g3
(g7
S'\xbf\xb8\xe0\x19\xca>(@'
p6169
tp6170
Rp6171
sg13
I1
sg14
I3
sg15
I10
sa(dp6172
g2
g3
(g7
S'Q2\xf4A\x08\x7f-@'
p6173
tp6174
Rp6175
sg13
I1
sg14
I4
sg15
I10
sa(dp6176
g2
g3
(g7
S'\xfd~\x18,\x1c\x191@'
p6177
tp6178
Rp6179
sg13
I1
sg14
I5
sg15
I10
sa(dp6180
g2
g3
(g7
S'I&p\x96.j/@'
p6181
tp6182
Rp6183
sg13
I1
sg14
I6
sg15
I10
sa(dp6184
g2
g3
(g7
S'\xa7\x08\xd2\xf0\xe4Z,@'
p6185
tp6186
Rp6187
sg13
I1
sg14
I7
sg15
I10
sa(dp6188
g2
g3
(g7
S'\xe2\x0bh\xabm\xc7+@'
p6189
tp6190
Rp6191
sg13
I1
sg14
I8
sg15
I10
sa(dp6192
g2
g3
(g7
S'eW\xecw\xd9n+@'
p6193
tp6194
Rp6195
sg13
I1
sg14
I9
sg15
I10
sa(dp6196
g2
g3
(g7
S'{0\xf8t\xb4C+@'
p6197
tp6198
Rp6199
sg13
I1
sg14
I10
sg15
I10
sa(dp6200
g2
g3
(g7
S'-\x972\x82\x81\xd1+@'
p6201
tp6202
Rp6203
sg13
I1
sg14
I11
sg15
I10
sa(dp6204
g2
g3
(g7
S'\xa7\x13\x81\xff\xd8L+@'
p6205
tp6206
Rp6207
sg13
I1
sg14
I12
sg15
I10
sa(dp6208
g2
g3
(g7
S'\x1d\xac\xe4\xe0\x07#+@'
p6209
tp6210
Rp6211
sg13
I1
sg14
I13
sg15
I10
sa(dp6212
g2
g3
(g7
S'\xe4*\x9c\xb3\xc1!+@'
p6213
tp6214
Rp6215
sg13
I1
sg14
I14
sg15
I10
sa(dp6216
g2
g3
(g7
S'\xce\xc9\xb2\xef\x8f\x9a+@'
p6217
tp6218
Rp6219
sg13
I1
sg14
I15
sg15
I10
sa(dp6220
g2
g3
(g7
S'\xe3\x96-i"\x84,@'
p6221
tp6222
Rp6223
sg13
I1
sg14
I16
sg15
I10
sa(dp6224
g2
g3
(g7
S'7\n\xab\xfc\x1d\xa2+@'
p6225
tp6226
Rp6227
sg13
I1
sg14
I17
sg15
I10
sa(dp6228
g2
g3
(g7
S'\x89-<?\xafp*@'
p6229
tp6230
Rp6231
sg13
I1
sg14
I18
sg15
I10
sa(dp6232
g2
g3
(g7
S'\xc4\xc8\xb4\xca\x0c\xa9)@'
p6233
tp6234
Rp6235
sg13
I1
sg14
I19
sg15
I10
sa(dp6236
g2
g3
(g7
S'_\xc7\x06\x06\x13M)@'
p6237
tp6238
Rp6239
sg13
I1
sg14
I20
sg15
I10
sa(dp6240
g2
g3
(g7
S'\xa4\x0bK\x11pk)@'
p6241
tp6242
Rp6243
sg13
I1
sg14
I21
sg15
I10
sa(dp6244
g2
g3
(g7
S'\xd5\x86\xcftH\x8e*@'
p6245
tp6246
Rp6247
sg13
I1
sg14
I22
sg15
I10
sa(dp6248
g2
g3
(g7
S'\xb3j\xda\xb7M\xef+@'
p6249
tp6250
Rp6251
sg13
I1
sg14
I23
sg15
I10
sa(dp6252
g2
g3
(g7
S'\xbd\xfe^v%\xc5*@'
p6253
tp6254
Rp6255
sg13
I2
sg14
I0
sg15
I10
sa(dp6256
g2
g3
(g7
S'\xbd\xa6\xee,\x93\xd5)@'
p6257
tp6258
Rp6259
sg13
I2
sg14
I1
sg15
I10
sa(dp6260
g2
g3
(g7
S'\x17u\x81rI\xb4(@'
p6261
tp6262
Rp6263
sg13
I2
sg14
I2
sg15
I10
sa(dp6264
g2
g3
(g7
S'\xb1e\x1d\x0cI\xc2)@'
p6265
tp6266
Rp6267
sg13
I2
sg14
I3
sg15
I10
sa(dp6268
g2
g3
(g7
S'\xda\r\x82g\x1c\xe9,@'
p6269
tp6270
Rp6271
sg13
I2
sg14
I4
sg15
I10
sa(dp6272
g2
g3
(g7
S'\x89\xf9\xa3\xac\x0e51@'
p6273
tp6274
Rp6275
sg13
I2
sg14
I5
sg15
I10
sa(dp6276
g2
g3
(g7
S'R\x891\xac:\xa5/@'
p6277
tp6278
Rp6279
sg13
I2
sg14
I6
sg15
I10
sa(dp6280
g2
g3
(g7
S'dqZ\x19\tk,@'
p6281
tp6282
Rp6283
sg13
I2
sg14
I7
sg15
I10
sa(dp6284
g2
g3
(g7
S'\xd9\x05\xe9\x8c\xab\x8a,@'
p6285
tp6286
Rp6287
sg13
I2
sg14
I8
sg15
I10
sa(dp6288
g2
g3
(g7
S'\x1d&\xd9T\x19\xc6,@'
p6289
tp6290
Rp6291
sg13
I2
sg14
I9
sg15
I10
sa(dp6292
g2
g3
(g7
S'\x00/o\x12\xb4\xd1+@'
p6293
tp6294
Rp6295
sg13
I2
sg14
I10
sg15
I10
sa(dp6296
g2
g3
(g7
S'\x0e\xa1\x8d_\x8dk+@'
p6297
tp6298
Rp6299
sg13
I2
sg14
I11
sg15
I10
sa(dp6300
g2
g3
(g7
S'\xae\xc5\x9fUI-+@'
p6301
tp6302
Rp6303
sg13
I2
sg14
I12
sg15
I10
sa(dp6304
g2
g3
(g7
S'\xd6:\xf8<\x87\xb2*@'
p6305
tp6306
Rp6307
sg13
I2
sg14
I13
sg15
I10
sa(dp6308
g2
g3
(g7
S'X\xed)\x0e\x0e\xe7*@'
p6309
tp6310
Rp6311
sg13
I2
sg14
I14
sg15
I10
sa(dp6312
g2
g3
(g7
S'\x80\xb0\xc0=\xd9p+@'
p6313
tp6314
Rp6315
sg13
I2
sg14
I15
sg15
I10
sa(dp6316
g2
g3
(g7
S'<\x18\x8f^\xa7=,@'
p6317
tp6318
Rp6319
sg13
I2
sg14
I16
sg15
I10
sa(dp6320
g2
g3
(g7
S'\xe8\x000\x8baM+@'
p6321
tp6322
Rp6323
sg13
I2
sg14
I17
sg15
I10
sa(dp6324
g2
g3
(g7
S'\xac\xd8+\xb3\xf7\xc3*@'
p6325
tp6326
Rp6327
sg13
I2
sg14
I18
sg15
I10
sa(dp6328
g2
g3
(g7
S'C\x98/\xb7\xb5\xc2)@'
p6329
tp6330
Rp6331
sg13
I2
sg14
I19
sg15
I10
sa(dp6332
g2
g3
(g7
S'`\x84l\xf0\r\xc5(@'
p6333
tp6334
Rp6335
sg13
I2
sg14
I20
sg15
I10
sa(dp6336
g2
g3
(g7
S'\xd4M\xc4\x9c\x80\xaa)@'
p6337
tp6338
Rp6339
sg13
I2
sg14
I21
sg15
I10
sa(dp6340
g2
g3
(g7
S"\xa27\x19e''*@"
p6341
tp6342
Rp6343
sg13
I2
sg14
I22
sg15
I10
sa(dp6344
g2
g3
(g7
S'+\x03%e\x06\xa5)@'
p6345
tp6346
Rp6347
sg13
I2
sg14
I23
sg15
I10
sa(dp6348
g2
g3
(g7
S'\xc5=\xb60\xad\xfc(@'
p6349
tp6350
Rp6351
sg13
I3
sg14
I0
sg15
I10
sa(dp6352
g2
g3
(g7
S'\x1b\xa8\xa8\xa3\xa39)@'
p6353
tp6354
Rp6355
sg13
I3
sg14
I1
sg15
I10
sa(dp6356
g2
g3
(g7
S'\x02g\xc6\x05\xff\x19(@'
p6357
tp6358
Rp6359
sg13
I3
sg14
I2
sg15
I10
sa(dp6360
g2
g3
(g7
S'\x12$\x03ZwH)@'
p6361
tp6362
Rp6363
sg13
I3
sg14
I3
sg15
I10
sa(dp6364
g2
g3
(g7
S'\xdf\x8a\xe7*L2.@'
p6365
tp6366
Rp6367
sg13
I3
sg14
I4
sg15
I10
sa(dp6368
g2
g3
(g7
S"Z'D\x82\x1861@"
p6369
tp6370
Rp6371
sg13
I3
sg14
I5
sg15
I10
sa(dp6372
g2
g3
(g7
S'\xff\xa3\r\xad;c0@'
p6373
tp6374
Rp6375
sg13
I3
sg14
I6
sg15
I10
sa(dp6376
g2
g3
(g7
S',"-\xd0\x88\xc1,@'
p6377
tp6378
Rp6379
sg13
I3
sg14
I7
sg15
I10
sa(dp6380
g2
g3
(g7
S'\x8e\xd2P\x00F\r,@'
p6381
tp6382
Rp6383
sg13
I3
sg14
I8
sg15
I10
sa(dp6384
g2
g3
(g7
S'[\xf9l\xaa\xb4k,@'
p6385
tp6386
Rp6387
sg13
I3
sg14
I9
sg15
I10
sa(dp6388
g2
g3
(g7
S'\xb5\xf7\xeb\xd9\x11;,@'
p6389
tp6390
Rp6391
sg13
I3
sg14
I10
sg15
I10
sa(dp6392
g2
g3
(g7
S'\x9c\xc2\xdf)x|,@'
p6393
tp6394
Rp6395
sg13
I3
sg14
I11
sg15
I10
sa(dp6396
g2
g3
(g7
S'\x84\xb0\x97\x05\x96q+@'
p6397
tp6398
Rp6399
sg13
I3
sg14
I12
sg15
I10
sa(dp6400
g2
g3
(g7
S'\xdc\xa3}\xa3\x97\x83+@'
p6401
tp6402
Rp6403
sg13
I3
sg14
I13
sg15
I10
sa(dp6404
g2
g3
(g7
S'z&\xef\xed\x15I,@'
p6405
tp6406
Rp6407
sg13
I3
sg14
I14
sg15
I10
sa(dp6408
g2
g3
(g7
S'\x07]\x15\xc2\xe2b,@'
p6409
tp6410
Rp6411
sg13
I3
sg14
I15
sg15
I10
sa(dp6412
g2
g3
(g7
S'\x99+\\;\xacy-@'
p6413
tp6414
Rp6415
sg13
I3
sg14
I16
sg15
I10
sa(dp6416
g2
g3
(g7
S'K\x05\x1d\x0f`\x95,@'
p6417
tp6418
Rp6419
sg13
I3
sg14
I17
sg15
I10
sa(dp6420
g2
g3
(g7
S'\xf8.\xbdC\xec\x98+@'
p6421
tp6422
Rp6423
sg13
I3
sg14
I18
sg15
I10
sa(dp6424
g2
g3
(g7
S'\xae\xf9\x83\xbey\xc9*@'
p6425
tp6426
Rp6427
sg13
I3
sg14
I19
sg15
I10
sa(dp6428
g2
g3
(g7
S'B`0\xf9\x84\xb6)@'
p6429
tp6430
Rp6431
sg13
I3
sg14
I20
sg15
I10
sa(dp6432
g2
g3
(g7
S'<\xe9-\x0e\x9f\x99)@'
p6433
tp6434
Rp6435
sg13
I3
sg14
I21
sg15
I10
sa(dp6436
g2
g3
(g7
S'\x94+)\x00\xb9\x19*@'
p6437
tp6438
Rp6439
sg13
I3
sg14
I22
sg15
I10
sa(dp6440
g2
g3
(g7
S'^.\xddR\x98\xfb*@'
p6441
tp6442
Rp6443
sg13
I3
sg14
I23
sg15
I10
sa(dp6444
g2
g3
(g7
S'f\x8c\xbd\x83(\x97*@'
p6445
tp6446
Rp6447
sg13
I4
sg14
I0
sg15
I10
sa(dp6448
g2
g3
(g7
S'\xc8\xc2\xe8\x83R@)@'
p6449
tp6450
Rp6451
sg13
I4
sg14
I1
sg15
I10
sa(dp6452
g2
g3
(g7
S'\x9c\xef\x8eM\x88\\)@'
p6453
tp6454
Rp6455
sg13
I4
sg14
I2
sg15
I10
sa(dp6456
g2
g3
(g7
S'\xf3\xe1\xff1f\x9d*@'
p6457
tp6458
Rp6459
sg13
I4
sg14
I3
sg15
I10
sa(dp6460
g2
g3
(g7
S'\xed\xf1\xd2\x94\xd6m-@'
p6461
tp6462
Rp6463
sg13
I4
sg14
I4
sg15
I10
sa(dp6464
g2
g3
(g7
S'/\x80\x99%\xae_1@'
p6465
tp6466
Rp6467
sg13
I4
sg14
I5
sg15
I10
sa(dp6468
g2
g3
(g7
S'%j\xabU\x08\x060@'
p6469
tp6470
Rp6471
sg13
I4
sg14
I6
sg15
I10
sa(dp6472
g2
g3
(g7
S'O\xa0\xdc\x95\x8cg,@'
p6473
tp6474
Rp6475
sg13
I4
sg14
I7
sg15
I10
sa(dp6476
g2
g3
(g7
S' %}=2B,@'
p6477
tp6478
Rp6479
sg13
I4
sg14
I8
sg15
I10
sa(dp6480
g2
g3
(g7
S'\x85\xbc\xa3z\xdeP,@'
p6481
tp6482
Rp6483
sg13
I4
sg14
I9
sg15
I10
sa(dp6484
g2
g3
(g7
S'\xa6\xac\xfc)\xd6\xca+@'
p6485
tp6486
Rp6487
sg13
I4
sg14
I10
sg15
I10
sa(dp6488
g2
g3
(g7
S'\xa0\x01\x98\xea\xe27,@'
p6489
tp6490
Rp6491
sg13
I4
sg14
I11
sg15
I10
sa(dp6492
g2
g3
(g7
S'1\x8c\x8bd\xe5Q+@'
p6493
tp6494
Rp6495
sg13
I4
sg14
I12
sg15
I10
sa(dp6496
g2
g3
(g7
S'\xe2\x8aO\xbc \xa0*@'
p6497
tp6498
Rp6499
sg13
I4
sg14
I13
sg15
I10
sa(dp6500
g2
g3
(g7
S'\xae"\x07\x115M+@'
p6501
tp6502
Rp6503
sg13
I4
sg14
I14
sg15
I10
sa(dp6504
g2
g3
(g7
S'\xee\xf7\x80\xa0k\xc1+@'
p6505
tp6506
Rp6507
sg13
I4
sg14
I15
sg15
I10
sa(dp6508
g2
g3
(g7
S'\xa3\xe5\xb5\xcc51-@'
p6509
tp6510
Rp6511
sg13
I4
sg14
I16
sg15
I10
sa(dp6512
g2
g3
(g7
S'\xc2(\xd2\xcf\x82D,@'
p6513
tp6514
Rp6515
sg13
I4
sg14
I17
sg15
I10
sa(dp6516
g2
g3
(g7
S'\x82Bh\x02-\xad+@'
p6517
tp6518
Rp6519
sg13
I4
sg14
I18
sg15
I10
sa(dp6520
g2
g3
(g7
S'H\xf2bYs\xbb*@'
p6521
tp6522
Rp6523
sg13
I4
sg14
I19
sg15
I10
sa(dp6524
g2
g3
(g7
S'$v\xfd3\x84t)@'
p6525
tp6526
Rp6527
sg13
I4
sg14
I20
sg15
I10
sa(dp6528
g2
g3
(g7
S'\x86c\xed\xadq\xcc)@'
p6529
tp6530
Rp6531
sg13
I4
sg14
I21
sg15
I10
sa(dp6532
g2
g3
(g7
S'\xff\xac<\xef\xaf\xaa*@'
p6533
tp6534
Rp6535
sg13
I4
sg14
I22
sg15
I10
sa(dp6536
g2
g3
(g7
S'\xa8\x86\xfc}\x86X+@'
p6537
tp6538
Rp6539
sg13
I4
sg14
I23
sg15
I10
sa(dp6540
g2
g3
(g7
S'`\x1f}\xc9p^+@'
p6541
tp6542
Rp6543
sg13
I5
sg14
I0
sg15
I10
sa(dp6544
g2
g3
(g7
S'M\xd0\xe8\xd6\x9d\xc4*@'
p6545
tp6546
Rp6547
sg13
I5
sg14
I1
sg15
I10
sa(dp6548
g2
g3
(g7
S' bQz\xf2,+@'
p6549
tp6550
Rp6551
sg13
I5
sg14
I2
sg15
I10
sa(dp6552
g2
g3
(g7
S'\xa9\x0c\xf1\xd4\x94\x8f+@'
p6553
tp6554
Rp6555
sg13
I5
sg14
I3
sg15
I10
sa(dp6556
g2
g3
(g7
S'F\xd0\x98z\xfaT,@'
p6557
tp6558
Rp6559
sg13
I5
sg14
I4
sg15
I10
sa(dp6560
g2
g3
(g7
S'\x8a\xc6M\xc1\xec\x83/@'
p6561
tp6562
Rp6563
sg13
I5
sg14
I5
sg15
I10
sa(dp6564
g2
g3
(g7
S's\xc8\x82\x07\x8bi0@'
p6565
tp6566
Rp6567
sg13
I5
sg14
I6
sg15
I10
sa(dp6568
g2
g3
(g7
S'\xc1QB3\x9d[.@'
p6569
tp6570
Rp6571
sg13
I5
sg14
I7
sg15
I10
sa(dp6572
g2
g3
(g7
S'\x186U\xe6\x07>-@'
p6573
tp6574
Rp6575
sg13
I5
sg14
I8
sg15
I10
sa(dp6576
g2
g3
(g7
S'XL\x92\x8e)S+@'
p6577
tp6578
Rp6579
sg13
I5
sg14
I9
sg15
I10
sa(dp6580
g2
g3
(g7
S'\x90\x96f\x0bHU+@'
p6581
tp6582
Rp6583
sg13
I5
sg14
I10
sg15
I10
sa(dp6584
g2
g3
(g7
S'\xd2\xda\r=\xa0\x08+@'
p6585
tp6586
Rp6587
sg13
I5
sg14
I11
sg15
I10
sa(dp6588
g2
g3
(g7
S'\x06\xf3\xf9\xe1*\x91*@'
p6589
tp6590
Rp6591
sg13
I5
sg14
I12
sg15
I10
sa(dp6592
g2
g3
(g7
S'\x10V+\xe7\xc1\xb8*@'
p6593
tp6594
Rp6595
sg13
I5
sg14
I13
sg15
I10
sa(dp6596
g2
g3
(g7
S'\xa6EE\x07X\xb5*@'
p6597
tp6598
Rp6599
sg13
I5
sg14
I14
sg15
I10
sa(dp6600
g2
g3
(g7
S'\x82\x8f\x86}9\xaf*@'
p6601
tp6602
Rp6603
sg13
I5
sg14
I15
sg15
I10
sa(dp6604
g2
g3
(g7
S'\xfaR\xa8\xe4\x10\x9f*@'
p6605
tp6606
Rp6607
sg13
I5
sg14
I16
sg15
I10
sa(dp6608
g2
g3
(g7
S'\xf4\x13n\xa2"\x8d*@'
p6609
tp6610
Rp6611
sg13
I5
sg14
I17
sg15
I10
sa(dp6612
g2
g3
(g7
S'Vw\x88\xdc^O*@'
p6613
tp6614
Rp6615
sg13
I5
sg14
I18
sg15
I10
sa(dp6616
g2
g3
(g7
S'\x1e\xcf\xa5f=6*@'
p6617
tp6618
Rp6619
sg13
I5
sg14
I19
sg15
I10
sa(dp6620
g2
g3
(g7
S'\x00:\xb2\x95\x92u*@'
p6621
tp6622
Rp6623
sg13
I5
sg14
I20
sg15
I10
sa(dp6624
g2
g3
(g7
S'\xa5(\xe5\xd5+\xfa*@'
p6625
tp6626
Rp6627
sg13
I5
sg14
I21
sg15
I10
sa(dp6628
g2
g3
(g7
S'N\x85\x06\x8e\x9c\xb7+@'
p6629
tp6630
Rp6631
sg13
I5
sg14
I22
sg15
I10
sa(dp6632
g2
g3
(g7
S':\x19\x98e~\x1d-@'
p6633
tp6634
Rp6635
sg13
I5
sg14
I23
sg15
I10
sa(dp6636
g2
g3
(g7
S'J{&\xda\x85;,@'
p6637
tp6638
Rp6639
sg13
I6
sg14
I0
sg15
I10
sa(dp6640
g2
g3
(g7
S'G\x1fn\xae\xfe\xbf+@'
p6641
tp6642
Rp6643
sg13
I6
sg14
I1
sg15
I10
sa(dp6644
g2
g3
(g7
S'\x9f\xb0\x8cF\xdf\r,@'
p6645
tp6646
Rp6647
sg13
I6
sg14
I2
sg15
I10
sa(dp6648
g2
g3
(g7
S'\xc3\xe0\x97\xac\x86\x1f,@'
p6649
tp6650
Rp6651
sg13
I6
sg14
I3
sg15
I10
sa(dp6652
g2
g3
(g7
S'\xf3\xae.\xd4\xda\xab,@'
p6653
tp6654
Rp6655
sg13
I6
sg14
I4
sg15
I10
sa(dp6656
g2
g3
(g7
S'\x1e\xba\x18w\xcd\x1c.@'
p6657
tp6658
Rp6659
sg13
I6
sg14
I5
sg15
I10
sa(dp6660
g2
g3
(g7
S'\x8d\xe8\xbeDl\x080@'
p6661
tp6662
Rp6663
sg13
I6
sg14
I6
sg15
I10
sa(dp6664
g2
g3
(g7
S'\x18>\xb2\x94\x9c\x19/@'
p6665
tp6666
Rp6667
sg13
I6
sg14
I7
sg15
I10
sa(dp6668
g2
g3
(g7
S'p\x94,\xe2\xdc\x0c,@'
p6669
tp6670
Rp6671
sg13
I6
sg14
I8
sg15
I10
sa(dp6672
g2
g3
(g7
S'\t)Q4v/+@'
p6673
tp6674
Rp6675
sg13
I6
sg14
I9
sg15
I10
sa(dp6676
g2
g3
(g7
S'\xfa\xfcB\\\x06\xd8*@'
p6677
tp6678
Rp6679
sg13
I6
sg14
I10
sg15
I10
sa(dp6680
g2
g3
(g7
S'\xa7i4T\xd6\xcc*@'
p6681
tp6682
Rp6683
sg13
I6
sg14
I11
sg15
I10
sa(dp6684
g2
g3
(g7
S'\xecY\xf0\x03r\xe8*@'
p6685
tp6686
Rp6687
sg13
I6
sg14
I12
sg15
I10
sa(dp6688
g2
g3
(g7
S'\xe4\xb1 \x017\x89+@'
p6689
tp6690
Rp6691
sg13
I6
sg14
I13
sg15
I10
sa(dp6692
g2
g3
(g7
S'\xd9\xe6\xd3\xc3\x92\x9b+@'
p6693
tp6694
Rp6695
sg13
I6
sg14
I14
sg15
I10
sa(dp6696
g2
g3
(g7
S"\xd8\xf2\xe3'\x01\x91+@"
p6697
tp6698
Rp6699
sg13
I6
sg14
I15
sg15
I10
sa(dp6700
g2
g3
(g7
S'd\xbd\xc6\xfa\xdbC+@'
p6701
tp6702
Rp6703
sg13
I6
sg14
I16
sg15
I10
sa(dp6704
g2
g3
(g7
S'f\x95\xb0\xb5\xc9\xed*@'
p6705
tp6706
Rp6707
sg13
I6
sg14
I17
sg15
I10
sa(dp6708
g2
g3
(g7
S'>\xf5t\xa0\x9eh*@'
p6709
tp6710
Rp6711
sg13
I6
sg14
I18
sg15
I10
sa(dp6712
g2
g3
(g7
S'\x8a\x1d\x04(e\xf3)@'
p6713
tp6714
Rp6715
sg13
I6
sg14
I19
sg15
I10
sa(dp6716
g2
g3
(g7
S'=\xec\x9e\xfa\x90\xfe)@'
p6717
tp6718
Rp6719
sg13
I6
sg14
I20
sg15
I10
sa(dp6720
g2
g3
(g7
S'\xc0\xfe\xb2\xd0\xdb\xf4)@'
p6721
tp6722
Rp6723
sg13
I6
sg14
I21
sg15
I10
sa(dp6724
g2
g3
(g7
S'\xa0\xdf\xd0\xcfat*@'
p6725
tp6726
Rp6727
sg13
I6
sg14
I22
sg15
I10
sa(dp6728
g2
g3
(g7
S'\x00\x12\x88Q\xa3\xa8*@'
p6729
tp6730
Rp6731
sg13
I6
sg14
I23
sg15
I10
sa(dp6732
g2
g3
(g7
S'\xfayf\xce\x95\xab)@'
p6733
tp6734
Rp6735
sg13
I0
sg14
I0
sg15
I11
sa(dp6736
g2
g3
(g7
S'3\xb6\xa8\x88\xd8\xfa)@'
p6737
tp6738
Rp6739
sg13
I0
sg14
I1
sg15
I11
sa(dp6740
g2
g3
(g7
S'r\x1e\xba=\x12\x16)@'
p6741
tp6742
Rp6743
sg13
I0
sg14
I2
sg15
I11
sa(dp6744
g2
g3
(g7
S'\xda\x8ed\xaf\\\xa1*@'
p6745
tp6746
Rp6747
sg13
I0
sg14
I3
sg15
I11
sa(dp6748
g2
g3
(g7
S'\x06H\xe1z\x14\xfc.@'
p6749
tp6750
Rp6751
sg13
I0
sg14
I4
sg15
I11
sa(dp6752
g2
g3
(g7
S'\xea\xa4R\xaf\xff\xb41@'
p6753
tp6754
Rp6755
sg13
I0
sg14
I5
sg15
I11
sa(dp6756
g2
g3
(g7
S'\xac\x80K\x949\x1e0@'
p6757
tp6758
Rp6759
sg13
I0
sg14
I6
sg15
I11
sa(dp6760
g2
g3
(g7
S'\xe8@\xdf\xec\xe9\x01-@'
p6761
tp6762
Rp6763
sg13
I0
sg14
I7
sg15
I11
sa(dp6764
g2
g3
(g7
S'p\xca7\xbbAK,@'
p6765
tp6766
Rp6767
sg13
I0
sg14
I8
sg15
I11
sa(dp6768
g2
g3
(g7
S'\xbc\x83\xb7\xa5\xe4,+@'
p6769
tp6770
Rp6771
sg13
I0
sg14
I9
sg15
I11
sa(dp6772
g2
g3
(g7
S":\xa9\xc2\x9e'\xb5*@"
p6773
tp6774
Rp6775
sg13
I0
sg14
I10
sg15
I11
sa(dp6776
g2
g3
(g7
S'i;y\xeby\xce*@'
p6777
tp6778
Rp6779
sg13
I0
sg14
I11
sg15
I11
sa(dp6780
g2
g3
(g7
S'$S\xf1\xe0\xf08+@'
p6781
tp6782
Rp6783
sg13
I0
sg14
I12
sg15
I11
sa(dp6784
g2
g3
(g7
S'\x95\x8e\xe5\x85\xe7\xd0*@'
p6785
tp6786
Rp6787
sg13
I0
sg14
I13
sg15
I11
sa(dp6788
g2
g3
(g7
S'\xc1\xac/\xbf\xbe\xb3*@'
p6789
tp6790
Rp6791
sg13
I0
sg14
I14
sg15
I11
sa(dp6792
g2
g3
(g7
S'\xc2\xa9DaH\x13+@'
p6793
tp6794
Rp6795
sg13
I0
sg14
I15
sg15
I11
sa(dp6796
g2
g3
(g7
S'<\x89\xab\xd9\x88S,@'
p6797
tp6798
Rp6799
sg13
I0
sg14
I16
sg15
I11
sa(dp6800
g2
g3
(g7
S'X\x91-\xe05\xa4+@'
p6801
tp6802
Rp6803
sg13
I0
sg14
I17
sg15
I11
sa(dp6804
g2
g3
(g7
S't\x1cn\xa5\x918*@'
p6805
tp6806
Rp6807
sg13
I0
sg14
I18
sg15
I11
sa(dp6808
g2
g3
(g7
S'\xf4Vvl\x1fD)@'
p6809
tp6810
Rp6811
sg13
I0
sg14
I19
sg15
I11
sa(dp6812
g2
g3
(g7
S'i\xc0\xd4\xe0\xdbs(@'
p6813
tp6814
Rp6815
sg13
I0
sg14
I20
sg15
I11
sa(dp6816
g2
g3
(g7
S'\x0bz\xba$\x07\xf6(@'
p6817
tp6818
Rp6819
sg13
I0
sg14
I21
sg15
I11
sa(dp6820
g2
g3
(g7
S'\xfe"\x1e=\x8c+)@'
p6821
tp6822
Rp6823
sg13
I0
sg14
I22
sg15
I11
sa(dp6824
g2
g3
(g7
S'w\x9c\xbeMg\xe0(@'
p6825
tp6826
Rp6827
sg13
I0
sg14
I23
sg15
I11
sa(dp6828
g2
g3
(g7
S'N\xba\x91\xeb\x0b0(@'
p6829
tp6830
Rp6831
sg13
I1
sg14
I0
sg15
I11
sa(dp6832
g2
g3
(g7
S"\x91\x8db\x07&\xc5'@"
p6833
tp6834
Rp6835
sg13
I1
sg14
I1
sg15
I11
sa(dp6836
g2
g3
(g7
S"~$\xaak\xe3}'@"
p6837
tp6838
Rp6839
sg13
I1
sg14
I2
sg15
I11
sa(dp6840
g2
g3
(g7
S'\x1e\x16\xce\x04\xe86)@'
p6841
tp6842
Rp6843
sg13
I1
sg14
I3
sg15
I11
sa(dp6844
g2
g3
(g7
S'\xffF\xed\xbeD\xd6-@'
p6845
tp6846
Rp6847
sg13
I1
sg14
I4
sg15
I11
sa(dp6848
g2
g3
(g7
S'L\xac8^\x1d\xb60@'
p6849
tp6850
Rp6851
sg13
I1
sg14
I5
sg15
I11
sa(dp6852
g2
g3
(g7
S'aT\x1a\x8ck*0@'
p6853
tp6854
Rp6855
sg13
I1
sg14
I6
sg15
I11
sa(dp6856
g2
g3
(g7
S'\x96\xef\x95\xfboL,@'
p6857
tp6858
Rp6859
sg13
I1
sg14
I7
sg15
I11
sa(dp6860
g2
g3
(g7
S'b\x1cn\xab\xb8E+@'
p6861
tp6862
Rp6863
sg13
I1
sg14
I8
sg15
I11
sa(dp6864
g2
g3
(g7
S'\xd4\x82\x8d\xa0[3+@'
p6865
tp6866
Rp6867
sg13
I1
sg14
I9
sg15
I11
sa(dp6868
g2
g3
(g7
S'y\x1d\xb93\x02t+@'
p6869
tp6870
Rp6871
sg13
I1
sg14
I10
sg15
I11
sa(dp6872
g2
g3
(g7
S'\xe2\xf5\xcc~.G+@'
p6873
tp6874
Rp6875
sg13
I1
sg14
I11
sg15
I11
sa(dp6876
g2
g3
(g7
S'\x91{\x8d\xd9\x8bk+@'
p6877
tp6878
Rp6879
sg13
I1
sg14
I12
sg15
I11
sa(dp6880
g2
g3
(g7
S'\xb8P\x82SB\x95*@'
p6881
tp6882
Rp6883
sg13
I1
sg14
I13
sg15
I11
sa(dp6884
g2
g3
(g7
S'h\xdb\xa68\x8en*@'
p6885
tp6886
Rp6887
sg13
I1
sg14
I14
sg15
I11
sa(dp6888
g2
g3
(g7
S'\x13d*\xf2\x8c(+@'
p6889
tp6890
Rp6891
sg13
I1
sg14
I15
sg15
I11
sa(dp6892
g2
g3
(g7
S'\xb2\x15\x9b\x0c\xc4I,@'
p6893
tp6894
Rp6895
sg13
I1
sg14
I16
sg15
I11
sa(dp6896
g2
g3
(g7
S'Y\x1cN\xf1\x07\xac+@'
p6897
tp6898
Rp6899
sg13
I1
sg14
I17
sg15
I11
sa(dp6900
g2
g3
(g7
S'|\x8f\xe5\xef\n\x14*@'
p6901
tp6902
Rp6903
sg13
I1
sg14
I18
sg15
I11
sa(dp6904
g2
g3
(g7
S'\xe9 \xd0\xc6-\xb3(@'
p6905
tp6906
Rp6907
sg13
I1
sg14
I19
sg15
I11
sa(dp6908
g2
g3
(g7
S'\x10\xbfdC\x87\xa2(@'
p6909
tp6910
Rp6911
sg13
I1
sg14
I20
sg15
I11
sa(dp6912
g2
g3
(g7
S'\rP\xb24\xd7\xa6(@'
p6913
tp6914
Rp6915
sg13
I1
sg14
I21
sg15
I11
sa(dp6916
g2
g3
(g7
S'\xfa\xd0&T\xfc\xf3(@'
p6917
tp6918
Rp6919
sg13
I1
sg14
I22
sg15
I11
sa(dp6920
g2
g3
(g7
S'\xd8l]\x81\x84\xf6(@'
p6921
tp6922
Rp6923
sg13
I1
sg14
I23
sg15
I11
sa(dp6924
g2
g3
(g7
S'\x16\xdc\xdb\xb9\x84)(@'
p6925
tp6926
Rp6927
sg13
I2
sg14
I0
sg15
I11
sa(dp6928
g2
g3
(g7
S'4\x9fx\x93<5(@'
p6929
tp6930
Rp6931
sg13
I2
sg14
I1
sg15
I11
sa(dp6932
g2
g3
(g7
S"n\xef\x89N\x18\xc9'@"
p6933
tp6934
Rp6935
sg13
I2
sg14
I2
sg15
I11
sa(dp6936
g2
g3
(g7
S'4\x88\xa8\xdf\xde\x82)@'
p6937
tp6938
Rp6939
sg13
I2
sg14
I3
sg15
I11
sa(dp6940
g2
g3
(g7
S'\xd19\x87g\xd2\x91.@'
p6941
tp6942
Rp6943
sg13
I2
sg14
I4
sg15
I11
sa(dp6944
g2
g3
(g7
S'\xb2%\x0c\x04\x87:2@'
p6945
tp6946
Rp6947
sg13
I2
sg14
I5
sg15
I11
sa(dp6948
g2
g3
(g7
S'\x97#\xe2\x11aB0@'
p6949
tp6950
Rp6951
sg13
I2
sg14
I6
sg15
I11
sa(dp6952
g2
g3
(g7
S'\xa5\x1d\xb9\xd8\x90R,@'
p6953
tp6954
Rp6955
sg13
I2
sg14
I7
sg15
I11
sa(dp6956
g2
g3
(g7
S'Gg\x8e\x86,\xc8+@'
p6957
tp6958
Rp6959
sg13
I2
sg14
I8
sg15
I11
sa(dp6960
g2
g3
(g7
S'\xcd\x1al/\x91\xef*@'
p6961
tp6962
Rp6963
sg13
I2
sg14
I9
sg15
I11
sa(dp6964
g2
g3
(g7
S'\xacq-B7^+@'
p6965
tp6966
Rp6967
sg13
I2
sg14
I10
sg15
I11
sa(dp6968
g2
g3
(g7
S't\xe8ULr\x92+@'
p6969
tp6970
Rp6971
sg13
I2
sg14
I11
sg15
I11
sa(dp6972
g2
g3
(g7
S'\xe3\xcc\xe4\x1b\x95P+@'
p6973
tp6974
Rp6975
sg13
I2
sg14
I12
sg15
I11
sa(dp6976
g2
g3
(g7
S'_2\xcc\xcd\xf7;+@'
p6977
tp6978
Rp6979
sg13
I2
sg14
I13
sg15
I11
sa(dp6980
g2
g3
(g7
S'\xa0\x01#\xf1\xc6\x8d+@'
p6981
tp6982
Rp6983
sg13
I2
sg14
I14
sg15
I11
sa(dp6984
g2
g3
(g7
S'\x05\xf2\x04\xdb/\xf1+@'
p6985
tp6986
Rp6987
sg13
I2
sg14
I15
sg15
I11
sa(dp6988
g2
g3
(g7
S'\x17\xca\x93\xbel\xbe,@'
p6989
tp6990
Rp6991
sg13
I2
sg14
I16
sg15
I11
sa(dp6992
g2
g3
(g7
S'\x1b\xb2F\r\x86\xe4+@'
p6993
tp6994
Rp6995
sg13
I2
sg14
I17
sg15
I11
sa(dp6996
g2
g3
(g7
S'\x9b\xa1\xd3\x9fO+*@'
p6997
tp6998
Rp6999
sg13
I2
sg14
I18
sg15
I11
sa(dp7000
g2
g3
(g7
S'\x17\x92\xc8\x81\r\x1f)@'
p7001
tp7002
Rp7003
sg13
I2
sg14
I19
sg15
I11
sa(dp7004
g2
g3
(g7
S'L\x12\xc4\xda\x18\xcd(@'
p7005
tp7006
Rp7007
sg13
I2
sg14
I20
sg15
I11
sa(dp7008
g2
g3
(g7
S'o\x1b:Ow\x06)@'
p7009
tp7010
Rp7011
sg13
I2
sg14
I21
sg15
I11
sa(dp7012
g2
g3
(g7
S'\x15Z2\x80[\x07*@'
p7013
tp7014
Rp7015
sg13
I2
sg14
I22
sg15
I11
sa(dp7016
g2
g3
(g7
S'"q\xf5\xf185*@'
p7017
tp7018
Rp7019
sg13
I2
sg14
I23
sg15
I11
sa(dp7020
g2
g3
(g7
S'\\\xaf\xe3\x1e\x9c\x97)@'
p7021
tp7022
Rp7023
sg13
I3
sg14
I0
sg15
I11
sa(dp7024
g2
g3
(g7
S'G\x1e\xeb\x90\xbe\xdc(@'
p7025
tp7026
Rp7027
sg13
I3
sg14
I1
sg15
I11
sa(dp7028
g2
g3
(g7
S'\xa3v\x1f2\xb6r)@'
p7029
tp7030
Rp7031
sg13
I3
sg14
I2
sg15
I11
sa(dp7032
g2
g3
(g7
S'\xcbx\x11M=\x9e+@'
p7033
tp7034
Rp7035
sg13
I3
sg14
I3
sg15
I11
sa(dp7036
g2
g3
(g7
S'\xca\x02G\x8b\xcf\x83/@'
p7037
tp7038
Rp7039
sg13
I3
sg14
I4
sg15
I11
sa(dp7040
g2
g3
(g7
S'\xe9\x8f\xbb\xd3w\x841@'
p7041
tp7042
Rp7043
sg13
I3
sg14
I5
sg15
I11
sa(dp7044
g2
g3
(g7
S'\x15\xc7?R\xebQ0@'
p7045
tp7046
Rp7047
sg13
I3
sg14
I6
sg15
I11
sa(dp7048
g2
g3
(g7
S'\xa4\xb0\xabV]\xc6,@'
p7049
tp7050
Rp7051
sg13
I3
sg14
I7
sg15
I11
sa(dp7052
g2
g3
(g7
S'x\xca\x13j\xf9),@'
p7053
tp7054
Rp7055
sg13
I3
sg14
I8
sg15
I11
sa(dp7056
g2
g3
(g7
S'`\xebB\xbdZx,@'
p7057
tp7058
Rp7059
sg13
I3
sg14
I9
sg15
I11
sa(dp7060
g2
g3
(g7
S'\x84\xe2\x0e\xcaC\xbc+@'
p7061
tp7062
Rp7063
sg13
I3
sg14
I10
sg15
I11
sa(dp7064
g2
g3
(g7
S'\xdf\xda\x8d\xb8\x11p+@'
p7065
tp7066
Rp7067
sg13
I3
sg14
I11
sg15
I11
sa(dp7068
g2
g3
(g7
S'k\xfe\x92\xe1\xc6\x15+@'
p7069
tp7070
Rp7071
sg13
I3
sg14
I12
sg15
I11
sa(dp7072
g2
g3
(g7
S'\x05\xec\n\xb2>\x9e*@'
p7073
tp7074
Rp7075
sg13
I3
sg14
I13
sg15
I11
sa(dp7076
g2
g3
(g7
S'\xe3cqG$\xe7*@'
p7077
tp7078
Rp7079
sg13
I3
sg14
I14
sg15
I11
sa(dp7080
g2
g3
(g7
S'\x99\x15$\x08\xa0E+@'
p7081
tp7082
Rp7083
sg13
I3
sg14
I15
sg15
I11
sa(dp7084
g2
g3
(g7
S'\x1e3\x15E\xca\x13,@'
p7085
tp7086
Rp7087
sg13
I3
sg14
I16
sg15
I11
sa(dp7088
g2
g3
(g7
S'n\xa6*\x8f;\xb9+@'
p7089
tp7090
Rp7091
sg13
I3
sg14
I17
sg15
I11
sa(dp7092
g2
g3
(g7
S'|?\x1d\xa6R\xae*@'
p7093
tp7094
Rp7095
sg13
I3
sg14
I18
sg15
I11
sa(dp7096
g2
g3
(g7
S'\xf2f\xf6E\xe5\xd3)@'
p7097
tp7098
Rp7099
sg13
I3
sg14
I19
sg15
I11
sa(dp7100
g2
g3
(g7
S'\xceV!\xe7!U)@'
p7101
tp7102
Rp7103
sg13
I3
sg14
I20
sg15
I11
sa(dp7104
g2
g3
(g7
S'HumL\x18\xb7)@'
p7105
tp7106
Rp7107
sg13
I3
sg14
I21
sg15
I11
sa(dp7108
g2
g3
(g7
S'\xc9Wn#\xbeT*@'
p7109
tp7110
Rp7111
sg13
I3
sg14
I22
sg15
I11
sa(dp7112
g2
g3
(g7
S'\xd9\xa4v%j\xb0*@'
p7113
tp7114
Rp7115
sg13
I3
sg14
I23
sg15
I11
sa(dp7116
g2
g3
(g7
S'\xb30b\xb6\xd8n*@'
p7117
tp7118
Rp7119
sg13
I4
sg14
I0
sg15
I11
sa(dp7120
g2
g3
(g7
S'\x9c\x15\x94\x1b\x9fz)@'
p7121
tp7122
Rp7123
sg13
I4
sg14
I1
sg15
I11
sa(dp7124
g2
g3
(g7
S'i\xc7\xab\xbc\xb3Z)@'
p7125
tp7126
Rp7127
sg13
I4
sg14
I2
sg15
I11
sa(dp7128
g2
g3
(g7
S'35\xa4\x11\xb9\x07*@'
p7129
tp7130
Rp7131
sg13
I4
sg14
I3
sg15
I11
sa(dp7132
g2
g3
(g7
S'wW\x83\x08\xcf\xdb,@'
p7133
tp7134
Rp7135
sg13
I4
sg14
I4
sg15
I11
sa(dp7136
g2
g3
(g7
S'\xa3\x16\x90\x11r61@'
p7137
tp7138
Rp7139
sg13
I4
sg14
I5
sg15
I11
sa(dp7140
g2
g3
(g7
S"\xad'\xee2\xec\x1c0@"
p7141
tp7142
Rp7143
sg13
I4
sg14
I6
sg15
I11
sa(dp7144
g2
g3
(g7
S'\xefg\x84H\xa7e,@'
p7145
tp7146
Rp7147
sg13
I4
sg14
I7
sg15
I11
sa(dp7148
g2
g3
(g7
S"\xde\xbd\x90v'\xae+@"
p7149
tp7150
Rp7151
sg13
I4
sg14
I8
sg15
I11
sa(dp7152
g2
g3
(g7
S'\xfed\xe9\xefc\xad+@'
p7153
tp7154
Rp7155
sg13
I4
sg14
I9
sg15
I11
sa(dp7156
g2
g3
(g7
S'\xd3i\xfb\xdf\x82\xbd*@'
p7157
tp7158
Rp7159
sg13
I4
sg14
I10
sg15
I11
sa(dp7160
g2
g3
(g7
S'\xaf\xa700Y\x0f+@'
p7161
tp7162
Rp7163
sg13
I4
sg14
I11
sg15
I11
sa(dp7164
g2
g3
(g7
S'\xb0\x1f\x0fi\xe9\x87+@'
p7165
tp7166
Rp7167
sg13
I4
sg14
I12
sg15
I11
sa(dp7168
g2
g3
(g7
S'\xb4\x93z\x98/j+@'
p7169
tp7170
Rp7171
sg13
I4
sg14
I13
sg15
I11
sa(dp7172
g2
g3
(g7
S'\xa2\xf9\xdf\x87\xec\xef*@'
p7173
tp7174
Rp7175
sg13
I4
sg14
I14
sg15
I11
sa(dp7176
g2
g3
(g7
S'3\x04\xbdS\xd72+@'
p7177
tp7178
Rp7179
sg13
I4
sg14
I15
sg15
I11
sa(dp7180
g2
g3
(g7
S'\x11\xd1\xd2D\xa9],@'
p7181
tp7182
Rp7183
sg13
I4
sg14
I16
sg15
I11
sa(dp7184
g2
g3
(g7
S'\x8d\x1c3\x0c\xf1>,@'
p7185
tp7186
Rp7187
sg13
I4
sg14
I17
sg15
I11
sa(dp7188
g2
g3
(g7
S'\x9c\x8d\x18\x8f\xdf"+@'
p7189
tp7190
Rp7191
sg13
I4
sg14
I18
sg15
I11
sa(dp7192
g2
g3
(g7
S'\x96s\xce\n\xabp*@'
p7193
tp7194
Rp7195
sg13
I4
sg14
I19
sg15
I11
sa(dp7196
g2
g3
(g7
S'r2\x1f>\xd0))@'
p7197
tp7198
Rp7199
sg13
I4
sg14
I20
sg15
I11
sa(dp7200
g2
g3
(g7
S'\x1a\xd2f\xa4\xf4Y)@'
p7201
tp7202
Rp7203
sg13
I4
sg14
I21
sg15
I11
sa(dp7204
g2
g3
(g7
S'\x8d\xe9\xb4\xca\xda\xa2*@'
p7205
tp7206
Rp7207
sg13
I4
sg14
I22
sg15
I11
sa(dp7208
g2
g3
(g7
S'?H\xfc\t)\xaf*@'
p7209
tp7210
Rp7211
sg13
I4
sg14
I23
sg15
I11
sa(dp7212
g2
g3
(g7
S'n\xdbR\xf9s\x14+@'
p7213
tp7214
Rp7215
sg13
I5
sg14
I0
sg15
I11
sa(dp7216
g2
g3
(g7
S'\xe7I\xda\xc4O\xbd*@'
p7217
tp7218
Rp7219
sg13
I5
sg14
I1
sg15
I11
sa(dp7220
g2
g3
(g7
S'5\xb4%\x90\xab\xab*@'
p7221
tp7222
Rp7223
sg13
I5
sg14
I2
sg15
I11
sa(dp7224
g2
g3
(g7
S'\xe8\xda\xec\xe9\xf6\xad+@'
p7225
tp7226
Rp7227
sg13
I5
sg14
I3
sg15
I11
sa(dp7228
g2
g3
(g7
S'\xf1k\xc0\xd6\x16\x99,@'
p7229
tp7230
Rp7231
sg13
I5
sg14
I4
sg15
I11
sa(dp7232
g2
g3
(g7
S'X\xd2\x1b\x98\x95//@'
p7233
tp7234
Rp7235
sg13
I5
sg14
I5
sg15
I11
sa(dp7236
g2
g3
(g7
S'\x04.\xbb^\x8c+/@'
p7237
tp7238
Rp7239
sg13
I5
sg14
I6
sg15
I11
sa(dp7240
g2
g3
(g7
S'\x00\xe5\x02\xfb|\xd4,@'
p7241
tp7242
Rp7243
sg13
I5
sg14
I7
sg15
I11
sa(dp7244
g2
g3
(g7
S'Fn\x05+\xe0\xc7+@'
p7245
tp7246
Rp7247
sg13
I5
sg14
I8
sg15
I11
sa(dp7248
g2
g3
(g7
S'T\x11T\x19\x1dG*@'
p7249
tp7250
Rp7251
sg13
I5
sg14
I9
sg15
I11
sa(dp7252
g2
g3
(g7
S'\xf2\x90\xa6\xe8U\xaa)@'
p7253
tp7254
Rp7255
sg13
I5
sg14
I10
sg15
I11
sa(dp7256
g2
g3
(g7
S'\xc0\xf1\x7f<-\x18*@'
p7257
tp7258
Rp7259
sg13
I5
sg14
I11
sg15
I11
sa(dp7260
g2
g3
(g7
S'\xfe\xb4\x8e\xbd\xedU*@'
p7261
tp7262
Rp7263
sg13
I5
sg14
I12
sg15
I11
sa(dp7264
g2
g3
(g7
S's\xcd \xf81r*@'
p7265
tp7266
Rp7267
sg13
I5
sg14
I13
sg15
I11
sa(dp7268
g2
g3
(g7
S'\x96\xdd"\x07\x0c-*@'
p7269
tp7270
Rp7271
sg13
I5
sg14
I14
sg15
I11
sa(dp7272
g2
g3
(g7
S'\x9c\x02\x9e\x0c^O*@'
p7273
tp7274
Rp7275
sg13
I5
sg14
I15
sg15
I11
sa(dp7276
g2
g3
(g7
S'\x1a>\xe1\xfd\xe2W*@'
p7277
tp7278
Rp7279
sg13
I5
sg14
I16
sg15
I11
sa(dp7280
g2
g3
(g7
S'uZ(\x04\x95\xd1*@'
p7281
tp7282
Rp7283
sg13
I5
sg14
I17
sg15
I11
sa(dp7284
g2
g3
(g7
S'<\xe2)\x86m\xe8)@'
p7285
tp7286
Rp7287
sg13
I5
sg14
I18
sg15
I11
sa(dp7288
g2
g3
(g7
S'\x95#\x8f\xc1\xa0\x85)@'
p7289
tp7290
Rp7291
sg13
I5
sg14
I19
sg15
I11
sa(dp7292
g2
g3
(g7
S'\xc8\xd2\x94\xb9\xd9\x15*@'
p7293
tp7294
Rp7295
sg13
I5
sg14
I20
sg15
I11
sa(dp7296
g2
g3
(g7
S'\xf6i#\xf0\xbec*@'
p7297
tp7298
Rp7299
sg13
I5
sg14
I21
sg15
I11
sa(dp7300
g2
g3
(g7
S'\x0c\xadRv\xc6\xfa*@'
p7301
tp7302
Rp7303
sg13
I5
sg14
I22
sg15
I11
sa(dp7304
g2
g3
(g7
S'\xf2\x80\xfeR\xba\xa8+@'
p7305
tp7306
Rp7307
sg13
I5
sg14
I23
sg15
I11
sa(dp7308
g2
g3
(g7
S'_]\xa7\xb1Kt,@'
p7309
tp7310
Rp7311
sg13
I6
sg14
I0
sg15
I11
sa(dp7312
g2
g3
(g7
S'\xadI\x07\x17\xe53,@'
p7313
tp7314
Rp7315
sg13
I6
sg14
I1
sg15
I11
sa(dp7316
g2
g3
(g7
S'\x96qx\xad\x99\xac+@'
p7317
tp7318
Rp7319
sg13
I6
sg14
I2
sg15
I11
sa(dp7320
g2
g3
(g7
S'@wp\xdffV,@'
p7321
tp7322
Rp7323
sg13
I6
sg14
I3
sg15
I11
sa(dp7324
g2
g3
(g7
S'_-R\xac\r\x01-@'
p7325
tp7326
Rp7327
sg13
I6
sg14
I4
sg15
I11
sa(dp7328
g2
g3
(g7
S'{\xbf\x9d\x9aI\xb2.@'
p7329
tp7330
Rp7331
sg13
I6
sg14
I5
sg15
I11
sa(dp7332
g2
g3
(g7
S'\xcbF\x08(\xb0\x0e0@'
p7333
tp7334
Rp7335
sg13
I6
sg14
I6
sg15
I11
sa(dp7336
g2
g3
(g7
S'\xf2\xab\xb7c\xfb\xae.@'
p7337
tp7338
Rp7339
sg13
I6
sg14
I7
sg15
I11
sa(dp7340
g2
g3
(g7
S'<N<\x06\xc9\xb2,@'
p7341
tp7342
Rp7343
sg13
I6
sg14
I8
sg15
I11
sa(dp7344
g2
g3
(g7
S'\xa5\xaad\xc6\xdaG*@'
p7345
tp7346
Rp7347
sg13
I6
sg14
I9
sg15
I11
sa(dp7348
g2
g3
(g7
S';\xac\x89R\xc2\x9b)@'
p7349
tp7350
Rp7351
sg13
I6
sg14
I10
sg15
I11
sa(dp7352
g2
g3
(g7
S'\xd4k\x91\xc6M\xa4)@'
p7353
tp7354
Rp7355
sg13
I6
sg14
I11
sg15
I11
sa(dp7356
g2
g3
(g7
S'6\xb13\xc2\x9b\xaf*@'
p7357
tp7358
Rp7359
sg13
I6
sg14
I12
sg15
I11
sa(dp7360
g2
g3
(g7
S'B\xce\xb2\xb4}\xb8*@'
p7361
tp7362
Rp7363
sg13
I6
sg14
I13
sg15
I11
sa(dp7364
g2
g3
(g7
S'\xc5\x81u\x86\x11i+@'
p7365
tp7366
Rp7367
sg13
I6
sg14
I14
sg15
I11
sa(dp7368
g2
g3
(g7
S'S\x1a\x16d\xd9\xeb*@'
p7369
tp7370
Rp7371
sg13
I6
sg14
I15
sg15
I11
sa(dp7372
g2
g3
(g7
S'\xd4&\x8f\xbe\xa18+@'
p7373
tp7374
Rp7375
sg13
I6
sg14
I16
sg15
I11
sa(dp7376
g2
g3
(g7
S's$nm\xae\x97*@'
p7377
tp7378
Rp7379
sg13
I6
sg14
I17
sg15
I11
sa(dp7380
g2
g3
(g7
S'\xff4~\x88L\x9f)@'
p7381
tp7382
Rp7383
sg13
I6
sg14
I18
sg15
I11
sa(dp7384
g2
g3
(g7
S'6\x9b\xb5\xf5\xbd\xec(@'
p7385
tp7386
Rp7387
sg13
I6
sg14
I19
sg15
I11
sa(dp7388
g2
g3
(g7
S'\x9f\x05\xb9\xafL\x82)@'
p7389
tp7390
Rp7391
sg13
I6
sg14
I20
sg15
I11
sa(dp7392
g2
g3
(g7
S'+\xcc\xa4Y\xf4\x7f)@'
p7393
tp7394
Rp7395
sg13
I6
sg14
I21
sg15
I11
sa(dp7396
g2
g3
(g7
S'\xd0\x9a.>h\xdd)@'
p7397
tp7398
Rp7399
sg13
I6
sg14
I22
sg15
I11
sa(dp7400
g2
g3
(g7
S"\xbdV'\x94\x9e\x94)@"
p7401
tp7402
Rp7403
sg13
I6
sg14
I23
sg15
I11
sa(dp7404
g2
g3
(g7
S'\xa6\x01\xc2\x00/\xdb(@'
p7405
tp7406
Rp7407
sg13
I0
sg14
I0
sg15
I12
sa(dp7408
g2
g3
(g7
S'-\x0b!s_((@'
p7409
tp7410
Rp7411
sg13
I0
sg14
I1
sg15
I12
sa(dp7412
g2
g3
(g7
S'\x1c(\xf1068(@'
p7413
tp7414
Rp7415
sg13
I0
sg14
I2
sg15
I12
sa(dp7416
g2
g3
(g7
S'7y\x92\xfe\xf91*@'
p7417
tp7418
Rp7419
sg13
I0
sg14
I3
sg15
I12
sa(dp7420
g2
g3
(g7
S'\xd8ls\xa4\x9e\x06-@'
p7421
tp7422
Rp7423
sg13
I0
sg14
I4
sg15
I12
sa(dp7424
g2
g3
(g7
S'\xa4\xb0\xc4\xf1\xc8\xf81@'
p7425
tp7426
Rp7427
sg13
I0
sg14
I5
sg15
I12
sa(dp7428
g2
g3
(g7
S'\x95\xdb^\xde\x8bP0@'
p7429
tp7430
Rp7431
sg13
I0
sg14
I6
sg15
I12
sa(dp7432
g2
g3
(g7
S'\x8e\x8e"\x1d\x06\x83,@'
p7433
tp7434
Rp7435
sg13
I0
sg14
I7
sg15
I12
sa(dp7436
g2
g3
(g7
S'\xca\x9d]\x02\xe4\xf2*@'
p7437
tp7438
Rp7439
sg13
I0
sg14
I8
sg15
I12
sa(dp7440
g2
g3
(g7
S'\x03\xb3\x0cS{l*@'
p7441
tp7442
Rp7443
sg13
I0
sg14
I9
sg15
I12
sa(dp7444
g2
g3
(g7
S'-\xb9\xe7G\xd8a*@'
p7445
tp7446
Rp7447
sg13
I0
sg14
I10
sg15
I12
sa(dp7448
g2
g3
(g7
S'\xe5*\x9du\xb3i*@'
p7449
tp7450
Rp7451
sg13
I0
sg14
I11
sg15
I12
sa(dp7452
g2
g3
(g7
S'\xd9\xc8 /\x84\xb4*@'
p7453
tp7454
Rp7455
sg13
I0
sg14
I12
sg15
I12
sa(dp7456
g2
g3
(g7
S'\xd3\x13\xdd\xa9v\xa3*@'
p7457
tp7458
Rp7459
sg13
I0
sg14
I13
sg15
I12
sa(dp7460
g2
g3
(g7
S'h>\x93j\x1eS+@'
p7461
tp7462
Rp7463
sg13
I0
sg14
I14
sg15
I12
sa(dp7464
g2
g3
(g7
S'9o\xfb\x0e\xc0\x87+@'
p7465
tp7466
Rp7467
sg13
I0
sg14
I15
sg15
I12
sa(dp7468
g2
g3
(g7
S'\xd2g\xf3;M\xf5,@'
p7469
tp7470
Rp7471
sg13
I0
sg14
I16
sg15
I12
sa(dp7472
g2
g3
(g7
S'\x05fI\xcf\x11\xbd+@'
p7473
tp7474
Rp7475
sg13
I0
sg14
I17
sg15
I12
sa(dp7476
g2
g3
(g7
S'e6\xfbX\xa9\x05*@'
p7477
tp7478
Rp7479
sg13
I0
sg14
I18
sg15
I12
sa(dp7480
g2
g3
(g7
S'E\xba0\x0c\xf8\x87(@'
p7481
tp7482
Rp7483
sg13
I0
sg14
I19
sg15
I12
sa(dp7484
g2
g3
(g7
S"\x9e\x81\xe1\xf4\x8e\xe6'@"
p7485
tp7486
Rp7487
sg13
I0
sg14
I20
sg15
I12
sa(dp7488
g2
g3
(g7
S'H!WE\xb8j(@'
p7489
tp7490
Rp7491
sg13
I0
sg14
I21
sg15
I12
sa(dp7492
g2
g3
(g7
S'q\xd1\xec\xd8\x1f\x18)@'
p7493
tp7494
Rp7495
sg13
I0
sg14
I22
sg15
I12
sa(dp7496
g2
g3
(g7
S'\xe3\x86\xf5\xc2\x1am)@'
p7497
tp7498
Rp7499
sg13
I0
sg14
I23
sg15
I12
sa(dp7500
g2
g3
(g7
S'\x88\xa1\xc2K\x0f\xd0(@'
p7501
tp7502
Rp7503
sg13
I1
sg14
I0
sg15
I12
sa(dp7504
g2
g3
(g7
S'\x05B\x0bb&*(@'
p7505
tp7506
Rp7507
sg13
I1
sg14
I1
sg15
I12
sa(dp7508
g2
g3
(g7
S"ikSe\x0f\xdf'@"
p7509
tp7510
Rp7511
sg13
I1
sg14
I2
sg15
I12
sa(dp7512
g2
g3
(g7
S'U\xf3s\xd8p\x95)@'
p7513
tp7514
Rp7515
sg13
I1
sg14
I3
sg15
I12
sa(dp7516
g2
g3
(g7
S'r\x10\x94\xeaI\x14/@'
p7517
tp7518
Rp7519
sg13
I1
sg14
I4
sg15
I12
sa(dp7520
g2
g3
(g7
S'P\xc6Y\x91\x05\x002@'
p7521
tp7522
Rp7523
sg13
I1
sg14
I5
sg15
I12
sa(dp7524
g2
g3
(g7
S'\xd8\xb1{\xf5\x14\xb70@'
p7525
tp7526
Rp7527
sg13
I1
sg14
I6
sg15
I12
sa(dp7528
g2
g3
(g7
S'(\xa3|X\xaeQ,@'
p7529
tp7530
Rp7531
sg13
I1
sg14
I7
sg15
I12
sa(dp7532
g2
g3
(g7
S'\x90\x1b\xda\xe43M+@'
p7533
tp7534
Rp7535
sg13
I1
sg14
I8
sg15
I12
sa(dp7536
g2
g3
(g7
S'p\xcbR\xdf<i+@'
p7537
tp7538
Rp7539
sg13
I1
sg14
I9
sg15
I12
sa(dp7540
g2
g3
(g7
S'j(\xb8h\xeee+@'
p7541
tp7542
Rp7543
sg13
I1
sg14
I10
sg15
I12
sa(dp7544
g2
g3
(g7
S'\x96\xa1\xae\x99\x08\x01+@'
p7545
tp7546
Rp7547
sg13
I1
sg14
I11
sg15
I12
sa(dp7548
g2
g3
(g7
S'\x0es\xb6\xacQ\xff*@'
p7549
tp7550
Rp7551
sg13
I1
sg14
I12
sg15
I12
sa(dp7552
g2
g3
(g7
S'\x0eB\x85\x89Jn+@'
p7553
tp7554
Rp7555
sg13
I1
sg14
I13
sg15
I12
sa(dp7556
g2
g3
(g7
S'\xbbTG\xbf^\xef*@'
p7557
tp7558
Rp7559
sg13
I1
sg14
I14
sg15
I12
sa(dp7560
g2
g3
(g7
S'Z\xa1^\xde\x07o+@'
p7561
tp7562
Rp7563
sg13
I1
sg14
I15
sg15
I12
sa(dp7564
g2
g3
(g7
S'X\xb2\xd47\xb8\xcd,@'
p7565
tp7566
Rp7567
sg13
I1
sg14
I16
sg15
I12
sa(dp7568
g2
g3
(g7
S'4\xed\x1b\xee\xb1\x8a,@'
p7569
tp7570
Rp7571
sg13
I1
sg14
I17
sg15
I12
sa(dp7572
g2
g3
(g7
S'eV\x05\xf7@\xf0*@'
p7573
tp7574
Rp7575
sg13
I1
sg14
I18
sg15
I12
sa(dp7576
g2
g3
(g7
S'\xb2\x0e\xa7\xed4u)@'
p7577
tp7578
Rp7579
sg13
I1
sg14
I19
sg15
I12
sa(dp7580
g2
g3
(g7
S'\x962t\x8a\xeb\xd5(@'
p7581
tp7582
Rp7583
sg13
I1
sg14
I20
sg15
I12
sa(dp7584
g2
g3
(g7
S'L\xa7\xbdJ\xb0\xcf(@'
p7585
tp7586
Rp7587
sg13
I1
sg14
I21
sg15
I12
sa(dp7588
g2
g3
(g7
S'\x056\xa0\x92\xa4\xa3)@'
p7589
tp7590
Rp7591
sg13
I1
sg14
I22
sg15
I12
sa(dp7592
g2
g3
(g7
S'\x92\x99S\xc7\x15{)@'
p7593
tp7594
Rp7595
sg13
I1
sg14
I23
sg15
I12
sa(dp7596
g2
g3
(g7
S'\xb3\xd8WI\x8e;)@'
p7597
tp7598
Rp7599
sg13
I2
sg14
I0
sg15
I12
sa(dp7600
g2
g3
(g7
S'\x11\x04g\xd8\x1e\x1a)@'
p7601
tp7602
Rp7603
sg13
I2
sg14
I1
sg15
I12
sa(dp7604
g2
g3
(g7
S'\xe8D\x16\xa7\xadr)@'
p7605
tp7606
Rp7607
sg13
I2
sg14
I2
sg15
I12
sa(dp7608
g2
g3
(g7
S'\xf3\xb7\x11r\x80\xf1*@'
p7609
tp7610
Rp7611
sg13
I2
sg14
I3
sg15
I12
sa(dp7612
g2
g3
(g7
S'\x10Y\xe9\x1b!3/@'
p7613
tp7614
Rp7615
sg13
I2
sg14
I4
sg15
I12
sa(dp7616
g2
g3
(g7
S'\xb7\x18\xa8\x13\xf4\xef1@'
p7617
tp7618
Rp7619
sg13
I2
sg14
I5
sg15
I12
sa(dp7620
g2
g3
(g7
S'\xb14\xcf\xac\xf3\xfd0@'
p7621
tp7622
Rp7623
sg13
I2
sg14
I6
sg15
I12
sa(dp7624
g2
g3
(g7
S'\x88\xb8\x8a\xb7C\xa4,@'
p7625
tp7626
Rp7627
sg13
I2
sg14
I7
sg15
I12
sa(dp7628
g2
g3
(g7
S'^Z\x14i\x1cP+@'
p7629
tp7630
Rp7631
sg13
I2
sg14
I8
sg15
I12
sa(dp7632
g2
g3
(g7
S'P~+C\x1b\x11+@'
p7633
tp7634
Rp7635
sg13
I2
sg14
I9
sg15
I12
sa(dp7636
g2
g3
(g7
S'\xb0\xce\xa65\xeb\xa7*@'
p7637
tp7638
Rp7639
sg13
I2
sg14
I10
sg15
I12
sa(dp7640
g2
g3
(g7
S'Q\xcady\x8e}+@'
p7641
tp7642
Rp7643
sg13
I2
sg14
I11
sg15
I12
sa(dp7644
g2
g3
(g7
S'\xc5\x86\x81\x89\x81\xc7+@'
p7645
tp7646
Rp7647
sg13
I2
sg14
I12
sg15
I12
sa(dp7648
g2
g3
(g7
S'|AB\x08Jj+@'
p7649
tp7650
Rp7651
sg13
I2
sg14
I13
sg15
I12
sa(dp7652
g2
g3
(g7
S'\xed\xbc+\xd0\x998,@'
p7653
tp7654
Rp7655
sg13
I2
sg14
I14
sg15
I12
sa(dp7656
g2
g3
(g7
S' \xbb\x1c\xe7{\xc8+@'
p7657
tp7658
Rp7659
sg13
I2
sg14
I15
sg15
I12
sa(dp7660
g2
g3
(g7
S'!\xe4r\xfb\x83L-@'
p7661
tp7662
Rp7663
sg13
I2
sg14
I16
sg15
I12
sa(dp7664
g2
g3
(g7
S'\xe0i\xc0\xd2\xfc\x82,@'
p7665
tp7666
Rp7667
sg13
I2
sg14
I17
sg15
I12
sa(dp7668
g2
g3
(g7
S'\x7f:\xf7\x97\xd4\xfa*@'
p7669
tp7670
Rp7671
sg13
I2
sg14
I18
sg15
I12
sa(dp7672
g2
g3
(g7
S'L=^\x95w8*@'
p7673
tp7674
Rp7675
sg13
I2
sg14
I19
sg15
I12
sa(dp7676
g2
g3
(g7
S'<l;\xaa\x06\xc0(@'
p7677
tp7678
Rp7679
sg13
I2
sg14
I20
sg15
I12
sa(dp7680
g2
g3
(g7
S'\xef\xac\x16\xeb\x83$)@'
p7681
tp7682
Rp7683
sg13
I2
sg14
I21
sg15
I12
sa(dp7684
g2
g3
(g7
S'\xc3\xbc\xdf\xde\x9cB)@'
p7685
tp7686
Rp7687
sg13
I2
sg14
I22
sg15
I12
sa(dp7688
g2
g3
(g7
S'\xe3\xd1q\x9av))@'
p7689
tp7690
Rp7691
sg13
I2
sg14
I23
sg15
I12
sa(dp7692
g2
g3
(g7
S'\x7f\xf3%KQ\xd0)@'
p7693
tp7694
Rp7695
sg13
I3
sg14
I0
sg15
I12
sa(dp7696
g2
g3
(g7
S'\xc3\x05riV:)@'
p7697
tp7698
Rp7699
sg13
I3
sg14
I1
sg15
I12
sa(dp7700
g2
g3
(g7
S'\x82V\xbf\x926\x05*@'
p7701
tp7702
Rp7703
sg13
I3
sg14
I2
sg15
I12
sa(dp7704
g2
g3
(g7
S'\x97\x9b\xc2\x8a\x05\xed*@'
p7705
tp7706
Rp7707
sg13
I3
sg14
I3
sg15
I12
sa(dp7708
g2
g3
(g7
S'\xaa5<0\x85\xb0-@'
p7709
tp7710
Rp7711
sg13
I3
sg14
I4
sg15
I12
sa(dp7712
g2
g3
(g7
S'\x9dd\x8cg\xa2\x851@'
p7713
tp7714
Rp7715
sg13
I3
sg14
I5
sg15
I12
sa(dp7716
g2
g3
(g7
S'O\x87M\xa9\xa6\xb30@'
p7717
tp7718
Rp7719
sg13
I3
sg14
I6
sg15
I12
sa(dp7720
g2
g3
(g7
S'\xce\xce~\xc7\x13_,@'
p7721
tp7722
Rp7723
sg13
I3
sg14
I7
sg15
I12
sa(dp7724
g2
g3
(g7
S'\xb2\xeb\xfe\x9d\x14f+@'
p7725
tp7726
Rp7727
sg13
I3
sg14
I8
sg15
I12
sa(dp7728
g2
g3
(g7
S'N3\x0c\x88\xce\x8f+@'
p7729
tp7730
Rp7731
sg13
I3
sg14
I9
sg15
I12
sa(dp7732
g2
g3
(g7
S'&\xbc\xca\xe2\x11\x92+@'
p7733
tp7734
Rp7735
sg13
I3
sg14
I10
sg15
I12
sa(dp7736
g2
g3
(g7
S'y\x84\x8de\x91\x1b*@'
p7737
tp7738
Rp7739
sg13
I3
sg14
I11
sg15
I12
sa(dp7740
g2
g3
(g7
S'\xca\x80|\xecR\x8e*@'
p7741
tp7742
Rp7743
sg13
I3
sg14
I12
sg15
I12
sa(dp7744
g2
g3
(g7
S'\xdf/Q,\x0c\xb5*@'
p7745
tp7746
Rp7747
sg13
I3
sg14
I13
sg15
I12
sa(dp7748
g2
g3
(g7
S'\xd9\x03\xc5+]\x86*@'
p7749
tp7750
Rp7751
sg13
I3
sg14
I14
sg15
I12
sa(dp7752
g2
g3
(g7
S't<\x9c\xd4\x19\x0c+@'
p7753
tp7754
Rp7755
sg13
I3
sg14
I15
sg15
I12
sa(dp7756
g2
g3
(g7
S'\x88\xe6\xcc\xe9\xe3w,@'
p7757
tp7758
Rp7759
sg13
I3
sg14
I16
sg15
I12
sa(dp7760
g2
g3
(g7
S'\xa6\x90c\x97b\x0b,@'
p7761
tp7762
Rp7763
sg13
I3
sg14
I17
sg15
I12
sa(dp7764
g2
g3
(g7
S'\xaa\xe3\xc2\xf0\x15\xef*@'
p7765
tp7766
Rp7767
sg13
I3
sg14
I18
sg15
I12
sa(dp7768
g2
g3
(g7
S'Tm\x08`\xff\xc4*@'
p7769
tp7770
Rp7771
sg13
I3
sg14
I19
sg15
I12
sa(dp7772
g2
g3
(g7
S'\x88\x08\xb5\xca\xc2\xd4)@'
p7773
tp7774
Rp7775
sg13
I3
sg14
I20
sg15
I12
sa(dp7776
g2
g3
(g7
S'\x86\xbb\xda\xfa\x91{*@'
p7777
tp7778
Rp7779
sg13
I3
sg14
I21
sg15
I12
sa(dp7780
g2
g3
(g7
S'\x89P0=\xcf\x91+@'
p7781
tp7782
Rp7783
sg13
I3
sg14
I22
sg15
I12
sa(dp7784
g2
g3
(g7
S'\x0e\x93\x02\x923\xde*@'
p7785
tp7786
Rp7787
sg13
I3
sg14
I23
sg15
I12
sa(dp7788
g2
g3
(g7
S'\x8e\xc7\xeb1\x99\xa4*@'
p7789
tp7790
Rp7791
sg13
I4
sg14
I0
sg15
I12
sa(dp7792
g2
g3
(g7
S'\x8e\xca\xce\xea\xcb\xca)@'
p7793
tp7794
Rp7795
sg13
I4
sg14
I1
sg15
I12
sa(dp7796
g2
g3
(g7
S'\xa4\x98\x99\x1a\xd9\x0b*@'
p7797
tp7798
Rp7799
sg13
I4
sg14
I2
sg15
I12
sa(dp7800
g2
g3
(g7
S'M\xf0\xb5Tt\x01*@'
p7801
tp7802
Rp7803
sg13
I4
sg14
I3
sg15
I12
sa(dp7804
g2
g3
(g7
S'G\x03{\xdb\x111-@'
p7805
tp7806
Rp7807
sg13
I4
sg14
I4
sg15
I12
sa(dp7808
g2
g3
(g7
S'\xa5K+.\x89*0@'
p7809
tp7810
Rp7811
sg13
I4
sg14
I5
sg15
I12
sa(dp7812
g2
g3
(g7
S'e%p&\x8b\x960@'
p7813
tp7814
Rp7815
sg13
I4
sg14
I6
sg15
I12
sa(dp7816
g2
g3
(g7
S'\xfb\x93\xb6\x92(\xa7,@'
p7817
tp7818
Rp7819
sg13
I4
sg14
I7
sg15
I12
sa(dp7820
g2
g3
(g7
S'\x9bMm\xf8\x9c\xd2+@'
p7821
tp7822
Rp7823
sg13
I4
sg14
I8
sg15
I12
sa(dp7824
g2
g3
(g7
S'$\x00\xe4%\x85\x87+@'
p7825
tp7826
Rp7827
sg13
I4
sg14
I9
sg15
I12
sa(dp7828
g2
g3
(g7
S'j\\\xce\xc6ud+@'
p7829
tp7830
Rp7831
sg13
I4
sg14
I10
sg15
I12
sa(dp7832
g2
g3
(g7
S';r\xf8q\x9fa+@'
p7833
tp7834
Rp7835
sg13
I4
sg14
I11
sg15
I12
sa(dp7836
g2
g3
(g7
S"\xa1\xba'\x9a\x85\xf6+@"
p7837
tp7838
Rp7839
sg13
I4
sg14
I12
sg15
I12
sa(dp7840
g2
g3
(g7
S'\xc6Q\xa4\x01\x8d\xca+@'
p7841
tp7842
Rp7843
sg13
I4
sg14
I13
sg15
I12
sa(dp7844
g2
g3
(g7
S'\xd75j\x90\\\xca+@'
p7845
tp7846
Rp7847
sg13
I4
sg14
I14
sg15
I12
sa(dp7848
g2
g3
(g7
S'\x87\x97h\x1b&\xd4+@'
p7849
tp7850
Rp7851
sg13
I4
sg14
I15
sg15
I12
sa(dp7852
g2
g3
(g7
S'\xcfi\xa7,T\xc1,@'
p7853
tp7854
Rp7855
sg13
I4
sg14
I16
sg15
I12
sa(dp7856
g2
g3
(g7
S'ody\xbe$\xbf+@'
p7857
tp7858
Rp7859
sg13
I4
sg14
I17
sg15
I12
sa(dp7860
g2
g3
(g7
S'\x13\xde\x8e\x86\xdd\x0f+@'
p7861
tp7862
Rp7863
sg13
I4
sg14
I18
sg15
I12
sa(dp7864
g2
g3
(g7
S'\xbbv\xc3\xfe\x0b\xb7*@'
p7865
tp7866
Rp7867
sg13
I4
sg14
I19
sg15
I12
sa(dp7868
g2
g3
(g7
S'\xeb\xcf\x92\xa4\x83\xb4)@'
p7869
tp7870
Rp7871
sg13
I4
sg14
I20
sg15
I12
sa(dp7872
g2
g3
(g7
S'\xd4C\xd3\xc4}\t*@'
p7873
tp7874
Rp7875
sg13
I4
sg14
I21
sg15
I12
sa(dp7876
g2
g3
(g7
S'h\x81\xf9\xfcN\xc6*@'
p7877
tp7878
Rp7879
sg13
I4
sg14
I22
sg15
I12
sa(dp7880
g2
g3
(g7
S'\xb7\x8c\x99\xc2\x06S+@'
p7881
tp7882
Rp7883
sg13
I4
sg14
I23
sg15
I12
sa(dp7884
g2
g3
(g7
S'\xd4\xa0%\xaf\xc7\xd1*@'
p7885
tp7886
Rp7887
sg13
I5
sg14
I0
sg15
I12
sa(dp7888
g2
g3
(g7
S'\xd0l\x9a\xf2\x80\xbe*@'
p7889
tp7890
Rp7891
sg13
I5
sg14
I1
sg15
I12
sa(dp7892
g2
g3
(g7
S'\xcbSS\xc6\xa7\xc0*@'
p7893
tp7894
Rp7895
sg13
I5
sg14
I2
sg15
I12
sa(dp7896
g2
g3
(g7
S'&\xa9\x9e\x81-K+@'
p7897
tp7898
Rp7899
sg13
I5
sg14
I3
sg15
I12
sa(dp7900
g2
g3
(g7
S'\xc2\x1cdn\xb5\x8c,@'
p7901
tp7902
Rp7903
sg13
I5
sg14
I4
sg15
I12
sa(dp7904
g2
g3
(g7
S'\t\xf2\xc9!I^/@'
p7905
tp7906
Rp7907
sg13
I5
sg14
I5
sg15
I12
sa(dp7908
g2
g3
(g7
S't\xf6c(\xa7\x140@'
p7909
tp7910
Rp7911
sg13
I5
sg14
I6
sg15
I12
sa(dp7912
g2
g3
(g7
S'\xf7,r0#\x8d-@'
p7913
tp7914
Rp7915
sg13
I5
sg14
I7
sg15
I12
sa(dp7916
g2
g3
(g7
S'\xd9\x9e:ev:,@'
p7917
tp7918
Rp7919
sg13
I5
sg14
I8
sg15
I12
sa(dp7920
g2
g3
(g7
S'\x06%w\xe0\xdea*@'
p7921
tp7922
Rp7923
sg13
I5
sg14
I9
sg15
I12
sa(dp7924
g2
g3
(g7
S'<\xdfbq\xc5\xf1)@'
p7925
tp7926
Rp7927
sg13
I5
sg14
I10
sg15
I12
sa(dp7928
g2
g3
(g7
S'o\x96\xcd8\x82\x16*@'
p7929
tp7930
Rp7931
sg13
I5
sg14
I11
sg15
I12
sa(dp7932
g2
g3
(g7
S'\xc2;\n&\x14\xa4*@'
p7933
tp7934
Rp7935
sg13
I5
sg14
I12
sg15
I12
sa(dp7936
g2
g3
(g7
S'\x82\n%\xa9\x96\xae*@'
p7937
tp7938
Rp7939
sg13
I5
sg14
I13
sg15
I12
sa(dp7940
g2
g3
(g7
S'\xa3\x8b0]\xac\xbc*@'
p7941
tp7942
Rp7943
sg13
I5
sg14
I14
sg15
I12
sa(dp7944
g2
g3
(g7
S'?BP\xbe\x98\xfe)@'
p7945
tp7946
Rp7947
sg13
I5
sg14
I15
sg15
I12
sa(dp7948
g2
g3
(g7
S'v\xf8 \xb0\xc3\x91*@'
p7949
tp7950
Rp7951
sg13
I5
sg14
I16
sg15
I12
sa(dp7952
g2
g3
(g7
S'\x13~}\xb8\xab\xd8*@'
p7953
tp7954
Rp7955
sg13
I5
sg14
I17
sg15
I12
sa(dp7956
g2
g3
(g7
S'\xb2\x11\xcf\xe7\xb9\xf3*@'
p7957
tp7958
Rp7959
sg13
I5
sg14
I18
sg15
I12
sa(dp7960
g2
g3
(g7
S'\x85\x98Y\xb1\xa7\x82*@'
p7961
tp7962
Rp7963
sg13
I5
sg14
I19
sg15
I12
sa(dp7964
g2
g3
(g7
S'\xe0\xce\x8a\x08\xe0\xb6*@'
p7965
tp7966
Rp7967
sg13
I5
sg14
I20
sg15
I12
sa(dp7968
g2
g3
(g7
S'\x1a|p\x8b\xb5\xa3*@'
p7969
tp7970
Rp7971
sg13
I5
sg14
I21
sg15
I12
sa(dp7972
g2
g3
(g7
S'\x9c-9+\xf7\x98+@'
p7973
tp7974
Rp7975
sg13
I5
sg14
I22
sg15
I12
sa(dp7976
g2
g3
(g7
S';)o\xe08\xf6+@'
p7977
tp7978
Rp7979
sg13
I5
sg14
I23
sg15
I12
sa(dp7980
g2
g3
(g7
S'\x01\xa4\xdf\xf1\xd5\xa9+@'
p7981
tp7982
Rp7983
sg13
I6
sg14
I0
sg15
I12
sa(dp7984
g2
g3
(g7
S'o=\xa8\xf8\xdd\xd5+@'
p7985
tp7986
Rp7987
sg13
I6
sg14
I1
sg15
I12
sa(dp7988
g2
g3
(g7
S':X\x82$\xee\xcd+@'
p7989
tp7990
Rp7991
sg13
I6
sg14
I2
sg15
I12
sa(dp7992
g2
g3
(g7
S'\x99+L\x08\x01S,@'
p7993
tp7994
Rp7995
sg13
I6
sg14
I3
sg15
I12
sa(dp7996
g2
g3
(g7
S'\x0f\x9b\x1dl\xda\xc4,@'
p7997
tp7998
Rp7999
sg13
I6
sg14
I4
sg15
I12
sa(dp8000
g2
g3
(g7
S'<mT\xc4S\xb6-@'
p8001
tp8002
Rp8003
sg13
I6
sg14
I5
sg15
I12
sa(dp8004
g2
g3
(g7
S'\xb2\xad\xf8f@\x150@'
p8005
tp8006
Rp8007
sg13
I6
sg14
I6
sg15
I12
sa(dp8008
g2
g3
(g7
S'\x9e!\xae\xdd\x1e\xc7-@'
p8009
tp8010
Rp8011
sg13
I6
sg14
I7
sg15
I12
sa(dp8012
g2
g3
(g7
S'\x00\t!\xbe\xe8\xda+@'
p8013
tp8014
Rp8015
sg13
I6
sg14
I8
sg15
I12
sa(dp8016
g2
g3
(g7
S'a[B9\xcf$*@'
p8017
tp8018
Rp8019
sg13
I6
sg14
I9
sg15
I12
sa(dp8020
g2
g3
(g7
S'$\xc2\xd7\xd2l\xd6)@'
p8021
tp8022
Rp8023
sg13
I6
sg14
I10
sg15
I12
sa(dp8024
g2
g3
(g7
S'+\x04\xe3b\xbb\x9d)@'
p8025
tp8026
Rp8027
sg13
I6
sg14
I11
sg15
I12
sa(dp8028
g2
g3
(g7
S'\xe3\xad9\xddn[*@'
p8029
tp8030
Rp8031
sg13
I6
sg14
I12
sg15
I12
sa(dp8032
g2
g3
(g7
S'}N\xf3\x94\x01\x98*@'
p8033
tp8034
Rp8035
sg13
I6
sg14
I13
sg15
I12
sa(dp8036
g2
g3
(g7
S'.\xbe\xc1\xd0\xb78+@'
p8037
tp8038
Rp8039
sg13
I6
sg14
I14
sg15
I12
sa(dp8040
g2
g3
(g7
S'o!M\x1b\xb8<+@'
p8041
tp8042
Rp8043
sg13
I6
sg14
I15
sg15
I12
sa(dp8044
g2
g3
(g7
S'\x8715\xd1\xc6\xf9*@'
p8045
tp8046
Rp8047
sg13
I6
sg14
I16
sg15
I12
sa(dp8048
g2
g3
(g7
S'\xa0DY\xd1\xf4\xf2*@'
p8049
tp8050
Rp8051
sg13
I6
sg14
I17
sg15
I12
sa(dp8052
g2
g3
(g7
S'\xf0S\x90 \x84\x96)@'
p8053
tp8054
Rp8055
sg13
I6
sg14
I18
sg15
I12
sa(dp8056
g2
g3
(g7
S'\xcf\xfb\xbd\xb4\x97\xcf(@'
p8057
tp8058
Rp8059
sg13
I6
sg14
I19
sg15
I12
sa(dp8060
g2
g3
(g7
S'{\x05\xac\xe0\x02\xa1)@'
p8061
tp8062
Rp8063
sg13
I6
sg14
I20
sg15
I12
sa(dp8064
g2
g3
(g7
S':\xac2A%{)@'
p8065
tp8066
Rp8067
sg13
I6
sg14
I21
sg15
I12
sa(dp8068
g2
g3
(g7
S'Z\xe7`\x90W\x9a)@'
p8069
tp8070
Rp8071
sg13
I6
sg14
I22
sg15
I12
sa(dp8072
g2
g3
(g7
S'\xd4h\x8aZ\x1f\x95)@'
p8073
tp8074
Rp8075
sg13
I6
sg14
I23
sg15
I12
sa.